

HI-TECH Software PIC LITE Macro Assembler V9.82 build 9453 
                                                                                               Mon Nov 29 22:36:44 2021

HI-TECH Software Omniscient Code Generator (Lite mode) build 9453
     1  0000                     opt subtitle "HI-TECH Software Omniscient Code Generator (Lite mode) build 9453"
     2                           
     3                           opt pagewidth 120
     4                           
     5                           	opt lm
     6                           
     7                           	processor	16F877A
     8                           clrc	macro
     9                           	bcf	3,0
    10  0000                     	endm
    11                           clrz	macro
    12                           	bcf	3,2
    13  0000                     	endm
    14                           setc	macro
    15                           	bsf	3,0
    16  0000                     	endm
    17                           setz	macro
    18                           	bsf	3,2
    19  0000                     	endm
    20                           skipc	macro
    21                           	btfss	3,0
    22  0000                     	endm
    23                           skipz	macro
    24                           	btfss	3,2
    25  0000                     	endm
    26                           skipnc	macro
    27                           	btfsc	3,0
    28  0000                     	endm
    29                           skipnz	macro
    30                           	btfsc	3,2
    31  0000                     	endm
    32  0000                     indf	equ	0
    33  0000                     indf0	equ	0
    34  0002                     pc	equ	2
    35  0002                     pcl	equ	2
    36  0003                     status	equ	3
    37  0004                     fsr	equ	4
    38  0004                     fsr0	equ	4
    39  0001                     c	equ	1
    40  0000                     z	equ	0
    41  000A                     pclath	equ	10
    42                           # 3 "D:\EE\Mplabcode\Experiment7\Transimitter\Transmitter.c"
    43                           	psect config,class=CONFIG,delta=2 ;#
    44                           # 3 "D:\EE\Mplabcode\Experiment7\Transimitter\Transmitter.c"
    45  2007  FF29               	dw 0xff29 ;#
    46                           	FNCALL	_main,_init
    47                           	FNCALL	_init,_delay
    48                           	FNCALL	_init,_enable
    49                           	FNCALL	_enable,_delay
    50                           	FNROOT	_main
    51                           	FNCALL	_tmr2,i1_delay
    52                           	FNCALL	intlevel1,_tmr2
    53                           	global	intlevel1
    54                           	FNROOT	intlevel1
    55                           	global	_s
    56                           psect	idataBANK0,class=CODE,space=0,delta=2
    57                           global __pidataBANK0
    58  0254                     __pidataBANK0:
    59                           	file	"D:\EE\Mplabcode\Experiment7\Transimitter\Transmitter.c"
    60                           	line	14
    61                           
    62                           ;initializer for _s
    63  0254  3431               	retlw	031h
    64  0255  3430               	retlw	030h
    65  0256  3430               	retlw	030h
    66  0257  3430               	retlw	030h
    67  0258  3430               	retlw	030h
    68  0259  3430               	retlw	030h
    69  025A  3430               	retlw	030h
    70  025B  3400               	retlw	0
    71  025C  3400               	retlw	0
    72  025D  3400               	retlw	0
    73  025E  3400               	retlw	0
    74  025F  3400               	retlw	0
    75  0260  3400               	retlw	0
    76  0261  3400               	retlw	0
    77  0262  3400               	retlw	0
    78  0263  3400               	retlw	0
    79  0264  3400               	retlw	0
    80  0265  3400               	retlw	0
    81  0266  3400               	retlw	0
    82  0267  3400               	retlw	0
    83                           	global	_x
    84                           	global	_y
    85                           	global	_cdata
    86                           	global	_z
    87                           	global	_cflag
    88                           	global	_flag
    89                           	global	_data
    90                           	global	_ADCON0
    91  001F                     _ADCON0	set	31
    92                           	global	_ADRESH
    93  001E                     _ADRESH	set	30
    94                           	global	_PORTA
    95  0005                     _PORTA	set	5
    96                           	global	_PORTB
    97  0006                     _PORTB	set	6
    98                           	global	_PORTC
    99  0007                     _PORTC	set	7
   100                           	global	_PORTD
   101  0008                     _PORTD	set	8
   102                           	global	_PORTE
   103  0009                     _PORTE	set	9
   104                           	global	_RCREG
   105  001A                     _RCREG	set	26
   106                           	global	_RCSTA
   107  0018                     _RCSTA	set	24
   108                           	global	_T2CON
   109  0012                     _T2CON	set	18
   110                           	global	_TXREG
   111  0019                     _TXREG	set	25
   112                           	global	_ADIF
   113  0066                     _ADIF	set	102
   114                           	global	_CARRY
   115  0018                     _CARRY	set	24
   116                           	global	_CHS0
   117  00FB                     _CHS0	set	251
   118                           	global	_CHS1
   119  00FC                     _CHS1	set	252
   120                           	global	_CHS2
   121  00FD                     _CHS2	set	253
   122                           	global	_CREN
   123  00C4                     _CREN	set	196
   124                           	global	_GIE
   125  005F                     _GIE	set	95
   126                           	global	_GO_nDONE
   127  00FA                     _GO_nDONE	set	250
   128                           	global	_PEIE
   129  005E                     _PEIE	set	94
   130                           	global	_RA3
   131  002B                     _RA3	set	43
   132                           	global	_RA4
   133  002C                     _RA4	set	44
   134                           	global	_RA5
   135  002D                     _RA5	set	45
   136                           	global	_RBIE
   137  005B                     _RBIE	set	91
   138                           	global	_RBIF
   139  0058                     _RBIF	set	88
   140                           	global	_RCIF
   141  0065                     _RCIF	set	101
   142                           	global	_RD0
   143  0040                     _RD0	set	64
   144                           	global	_RD1
   145  0041                     _RD1	set	65
   146                           	global	_RD2
   147  0042                     _RD2	set	66
   148                           	global	_SPEN
   149  00C7                     _SPEN	set	199
   150                           	global	_TMR2IF
   151  0061                     _TMR2IF	set	97
   152                           	global	_ADCON1
   153  009F                     _ADCON1	set	159
   154                           	global	_ADRESL
   155  009E                     _ADRESL	set	158
   156                           	global	_PR2
   157  0092                     _PR2	set	146
   158                           	global	_SPBRG
   159  0099                     _SPBRG	set	153
   160                           	global	_TRISA
   161  0085                     _TRISA	set	133
   162                           	global	_TRISB
   163  0086                     _TRISB	set	134
   164                           	global	_TRISC
   165  0087                     _TRISC	set	135
   166                           	global	_TRISD
   167  0088                     _TRISD	set	136
   168                           	global	_TXSTA
   169  0098                     _TXSTA	set	152
   170                           	global	_RCIE
   171  0465                     _RCIE	set	1125
   172                           	global	_SYNC
   173  04C4                     _SYNC	set	1220
   174                           	global	_TMR2IE
   175  0461                     _TMR2IE	set	1121
   176                           	global	_TRISE0
   177  0448                     _TRISE0	set	1096
   178                           	global	_TRISE1
   179  0449                     _TRISE1	set	1097
   180                           	global	_TRISE2
   181  044A                     _TRISE2	set	1098
   182                           	global	_TX9
   183  04C6                     _TX9	set	1222
   184                           	global	_TX9D
   185  04C0                     _TX9D	set	1216
   186                           	global	_TXEN
   187  04C5                     _TXEN	set	1221
   188                           	global	_nRBPU
   189  040F                     _nRBPU	set	1039
   190                           	global	_EEADR
   191  010D                     _EEADR	set	269
   192                           	global	_EEDATA
   193  010C                     _EEDATA	set	268
   194                           	global	_EECON1
   195  018C                     _EECON1	set	396
   196                           	global	_EECON2
   197  018D                     _EECON2	set	397
   198                           	global	_RD
   199  0C60                     _RD	set	3168
   200                           	global	_WR
   201  0C61                     _WR	set	3169
   202                           	global	_WREN
   203  0C62                     _WREN	set	3170
   204                           	file	"Transmitter.as"
   205                           	line	#
   206                           psect cinit,class=CODE,delta=2
   207                           global start_initialization
   208  0205                     start_initialization:
   209                           
   210                           psect	bitbssCOMMON,class=COMMON,bit,space=1
   211                           global __pbitbssCOMMON
   212  03D8                     __pbitbssCOMMON:
   213  03D8                     _cflag:
   214  03D8                            ds      1
   215                           
   216  03D9                     _flag:
   217  03D9                            ds      1
   218                           
   219                           psect	bssCOMMON,class=COMMON,space=1
   220                           global __pbssCOMMON
   221  007C                     __pbssCOMMON:
   222  007C                     _cdata:
   223  007C                            ds      1
   224                           
   225  007D                     _z:
   226  007D                            ds      1
   227                           
   228                           psect	bssBANK0,class=BANK0,space=1
   229                           global __pbssBANK0
   230  003C                     __pbssBANK0:
   231  003C                     _x:
   232  003C                            ds      1
   233                           
   234  003D                     _y:
   235  003D                            ds      1
   236                           
   237  003E                     _data:
   238  003E                            ds      4
   239                           
   240                           psect	dataBANK0,class=BANK0,space=1
   241                           global __pdataBANK0
   242  0020                     __pdataBANK0:
   243                           	file	"D:\EE\Mplabcode\Experiment7\Transimitter\Transmitter.c"
   244  0020                     _s:
   245  0020                            ds      20
   246                           
   247                           ; Clear objects allocated to BITCOMMON
   248                           psect cinit,class=CODE,delta=2
   249  0205  01FB               	clrf	((__pbitbssCOMMON/8)+0)&07Fh
   250                           ; Clear objects allocated to COMMON
   251                           psect cinit,class=CODE,delta=2
   252  0206  01FC               	clrf	((__pbssCOMMON)+0)&07Fh
   253  0207  01FD               	clrf	((__pbssCOMMON)+1)&07Fh
   254                           ; Clear objects allocated to BANK0
   255                           psect cinit,class=CODE,delta=2
   256  0208  01BC               	clrf	((__pbssBANK0)+0)&07Fh
   257  0209  01BD               	clrf	((__pbssBANK0)+1)&07Fh
   258  020A  01BE               	clrf	((__pbssBANK0)+2)&07Fh
   259  020B  01BF               	clrf	((__pbssBANK0)+3)&07Fh
   260  020C  01C0               	clrf	((__pbssBANK0)+4)&07Fh
   261  020D  01C1               	clrf	((__pbssBANK0)+5)&07Fh
   262                           global btemp
   263                           psect inittext,class=CODE,delta=2
   264                           global init_fetch,btemp
   265                           ;	Called with low address in FSR and high address in W
   266  0268                     init_fetch:
   267  0268  087E               	movf btemp,w
   268  0269  008A               	movwf pclath
   269  026A  087F               	movf btemp+1,w
   270  026B  0082               	movwf pc
   271                           global init_ram
   272                           ;Called with:
   273                           ;	high address of idata address in btemp 
   274                           ;	low address of idata address in btemp+1 
   275                           ;	low address of data in FSR
   276                           ;	high address + 1 of data in btemp-1
   277  026C                     init_ram:
   278  026C  120A  118A  2268   	fcall init_fetch
              120A  118A         
   279  0271  0080               	movwf indf,f
   280  0272  0A84               	incf fsr,f
   281  0273  0804               	movf fsr,w
   282  0274  067D               	xorwf btemp-1,w
   283  0275  1903               	btfsc status,2
   284  0276  3400               	retlw 0
   285  0277  0AFF               	incf btemp+1,f
   286  0278  1903               	btfsc status,2
   287  0279  0AFE               	incf btemp,f
   288  027A  2A6C               	goto init_ram
   289                           ; Initialize objects allocated to BANK0
   290                           psect cinit,class=CODE,delta=2
   291                           global init_ram, __pidataBANK0
   292  020E  1383               	bcf	status, 7	;select IRP bank0
   293  020F  3034               	movlw low(__pdataBANK0+20)
   294  0210  00FD               	movwf btemp-1,f
   295  0211  3002               	movlw high(__pidataBANK0)
   296  0212  00FE               	movwf btemp,f
   297  0213  3054               	movlw low(__pidataBANK0)
   298  0214  00FF               	movwf btemp+1,f
   299  0215  3020               	movlw low(__pdataBANK0)
   300  0216  0084               	movwf fsr,f
   301  0217  120A  118A  226C   	fcall init_ram
              120A  118A         
   302                           psect cinit,class=CODE,delta=2
   303                           global end_of_initialization
   304                           
   305                           ;End of C runtime variable initialization code
   306                           
   307  021C                     end_of_initialization:
   308  021C  0183               clrf status
   309  021D  120A  118A  2A7B   ljmp _main	;jump to C main() function
   310                           psect	cstackCOMMON,class=COMMON,space=1
   311                           global __pcstackCOMMON
   312  0070                     __pcstackCOMMON:
   313                           	global	?_init
   314  0070                     ?_init:	; 0 bytes @ 0x0
   315                           	global	?_tmr2
   316  0070                     ?_tmr2:	; 0 bytes @ 0x0
   317                           	global	?i1_delay
   318  0070                     ?i1_delay:	; 0 bytes @ 0x0
   319                           	global	?_main
   320  0070                     ?_main:	; 2 bytes @ 0x0
   321                           	global	i1delay@t
   322  0070                     i1delay@t:	; 2 bytes @ 0x0
   323  0070                     	ds	2
   324                           	global	??i1_delay
   325  0072                     ??i1_delay:	; 0 bytes @ 0x2
   326  0072                     	ds	1
   327                           	global	i1delay@i
   328  0073                     i1delay@i:	; 2 bytes @ 0x3
   329  0073                     	ds	2
   330                           	global	??_tmr2
   331  0075                     ??_tmr2:	; 0 bytes @ 0x5
   332  0075                     	ds	6
   333                           psect	cstackBANK0,class=BANK0,space=1
   334                           global __pcstackBANK0
   335  0034                     __pcstackBANK0:
   336                           	global	?_delay
   337  0034                     ?_delay:	; 0 bytes @ 0x0
   338                           	global	delay@t
   339  0034                     delay@t:	; 2 bytes @ 0x0
   340  0034                     	ds	2
   341                           	global	??_delay
   342  0036                     ??_delay:	; 0 bytes @ 0x2
   343  0036                     	ds	1
   344                           	global	delay@i
   345  0037                     delay@i:	; 2 bytes @ 0x3
   346  0037                     	ds	2
   347                           	global	?_enable
   348  0039                     ?_enable:	; 0 bytes @ 0x5
   349                           	global	enable@t
   350  0039                     enable@t:	; 2 bytes @ 0x5
   351  0039                     	ds	2
   352                           	global	??_init
   353  003B                     ??_init:	; 0 bytes @ 0x7
   354                           	global	??_enable
   355  003B                     ??_enable:	; 0 bytes @ 0x7
   356  003B                     	ds	1
   357                           	global	??_main
   358  003C                     ??_main:	; 0 bytes @ 0x8
   359 ;;Data sizes: Strings 0, constant 0, data 20, bss 8, persistent 0 stack 0
   360 ;;Auto spaces:   Size  Autos    Used
   361 ;; COMMON          14     11      14
   362 ;; BANK0           80      8      34
   363 ;; BANK1           80      0       0
   364 ;; BANK3           96      0       0
   365 ;; BANK2           96      0       0
   366                           
   367 ;;
   368 ;; Pointer list with targets:
   369                           
   370                           
   371                           
   372 ;;
   373 ;; Critical Paths under _main in COMMON
   374 ;;
   375 ;;   None.
   376 ;;
   377 ;; Critical Paths under _tmr2 in COMMON
   378 ;;
   379 ;;   _tmr2->i1_delay
   380 ;;
   381 ;; Critical Paths under _main in BANK0
   382 ;;
   383 ;;   _main->_init
   384 ;;   _init->_enable
   385 ;;   _enable->_delay
   386 ;;
   387 ;; Critical Paths under _tmr2 in BANK0
   388 ;;
   389 ;;   None.
   390 ;;
   391 ;; Critical Paths under _main in BANK1
   392 ;;
   393 ;;   None.
   394 ;;
   395 ;; Critical Paths under _tmr2 in BANK1
   396 ;;
   397 ;;   None.
   398 ;;
   399 ;; Critical Paths under _main in BANK3
   400 ;;
   401 ;;   None.
   402 ;;
   403 ;; Critical Paths under _tmr2 in BANK3
   404 ;;
   405 ;;   None.
   406 ;;
   407 ;; Critical Paths under _main in BANK2
   408 ;;
   409 ;;   None.
   410 ;;
   411 ;; Critical Paths under _tmr2 in BANK2
   412 ;;
   413 ;;   None.
   414                           
   415 ;;
   416 ;;Main: autosize = 0, tempsize = 0, incstack = 0, save=0
   417 ;;
   418                           
   419 ;;
   420 ;;Call Graph Tables:
   421 ;;
   422 ;; ---------------------------------------------------------------------------------
   423 ;; (Depth) Function   	        Calls       Base Space   Used Autos Params    Refs
   424 ;; ---------------------------------------------------------------------------------
   425 ;; (0) _main                                                 0     0      0     114
   426 ;;                               _init
   427 ;; ---------------------------------------------------------------------------------
   428 ;; (1) _init                                                 1     1      0     114
   429 ;;                                              7 BANK0      1     1      0
   430 ;;                              _delay
   431 ;;                             _enable
   432 ;; ---------------------------------------------------------------------------------
   433 ;; (2) _enable                                               2     0      2      68
   434 ;;                                              5 BANK0      2     0      2
   435 ;;                              _delay
   436 ;; ---------------------------------------------------------------------------------
   437 ;; (3) _delay                                                5     3      2      46
   438 ;;                                              0 BANK0      5     3      2
   439 ;; ---------------------------------------------------------------------------------
   440 ;; Estimated maximum stack depth 3
   441 ;; ---------------------------------------------------------------------------------
   442 ;; (Depth) Function   	        Calls       Base Space   Used Autos Params    Refs
   443 ;; ---------------------------------------------------------------------------------
   444 ;; (4) _tmr2                                                 6     6      0     150
   445 ;;                                              5 COMMON     6     6      0
   446 ;;                            i1_delay
   447 ;; ---------------------------------------------------------------------------------
   448 ;; (5) i1_delay                                              5     3      2     150
   449 ;;                                              0 COMMON     5     3      2
   450 ;; ---------------------------------------------------------------------------------
   451 ;; Estimated maximum stack depth 5
   452 ;; ---------------------------------------------------------------------------------
   453                           
   454 ;; Call Graph Graphs:
   455                           
   456 ;; _main (ROOT)
   457 ;;   _init
   458 ;;     _delay
   459 ;;     _enable
   460 ;;       _delay
   461 ;;
   462 ;; _tmr2 (ROOT)
   463 ;;   i1_delay
   464 ;;
   465                           
   466 ;; Address spaces:
   467                           
   468 ;;Name               Size   Autos  Total    Cost      Usage
   469 ;;BANK3               60      0       0       9        0.0%
   470 ;;BITBANK3            60      0       0       8        0.0%
   471 ;;SFR3                 0      0       0       4        0.0%
   472 ;;BITSFR3              0      0       0       4        0.0%
   473 ;;BANK2               60      0       0      11        0.0%
   474 ;;BITBANK2            60      0       0      10        0.0%
   475 ;;SFR2                 0      0       0       5        0.0%
   476 ;;BITSFR2              0      0       0       5        0.0%
   477 ;;SFR1                 0      0       0       2        0.0%
   478 ;;BITSFR1              0      0       0       2        0.0%
   479 ;;BANK1               50      0       0       7        0.0%
   480 ;;BITBANK1            50      0       0       6        0.0%
   481 ;;CODE                 0      0       0       0        0.0%
   482 ;;DATA                 0      0      37      12        0.0%
   483 ;;ABS                  0      0      30       3        0.0%
   484 ;;NULL                 0      0       0       0        0.0%
   485 ;;STACK                0      0       7       2        0.0%
   486 ;;BANK0               50      8      22       5       42.5%
   487 ;;BITBANK0            50      0       0       4        0.0%
   488 ;;SFR0                 0      0       0       1        0.0%
   489 ;;BITSFR0              0      0       0       1        0.0%
   490 ;;COMMON               E      B       E       1      100.0%
   491 ;;BITCOMMON            E      0       1       0        7.1%
   492 ;;EEDATA             100      0       0       0        0.0%
   493                           
   494                           	global	_main
   495                           psect	maintext,global,class=CODE,delta=2
   496                           global __pmaintext
   497  027B                     __pmaintext:
   498                           
   499 ;; *************** function _main *****************
   500 ;; Defined at:
   501 ;;		line 96 in file "D:\EE\Mplabcode\Experiment7\Transimitter\Transmitter.c"
   502 ;; Parameters:    Size  Location     Type
   503 ;;		None
   504 ;; Auto vars:     Size  Location     Type
   505 ;;		None
   506 ;; Return value:  Size  Location     Type
   507 ;;                  2  734[COMMON] int 
   508 ;; Registers used:
   509 ;;		wreg, status,2, status,0, pclath, cstack
   510 ;; Tracked objects:
   511 ;;		On entry : 17F/0
   512 ;;		On exit  : 0/0
   513 ;;		Unchanged: 0/0
   514 ;; Data sizes:     COMMON   BANK0   BANK1   BANK3   BANK2
   515 ;;      Params:         0       0       0       0       0
   516 ;;      Locals:         0       0       0       0       0
   517 ;;      Temps:          0       0       0       0       0
   518 ;;      Totals:         0       0       0       0       0
   519 ;;Total ram usage:        0 bytes
   520 ;; Hardware stack levels required when called:    5
   521 ;; This function calls:
   522 ;;		_init
   523 ;; This function is called by:
   524 ;;		Startup code after reset
   525 ;; This function uses a non-reentrant model
   526 ;;
   527                           psect	maintext
   528                           	file	"D:\EE\Mplabcode\Experiment7\Transimitter\Transmitter.c"
   529                           	line	96
   530                           	global	__size_of_main
   531  000E                     	__size_of_main	equ	__end_of_main-_main
   532                           	
   533  027B                     _main:	
   534                           	opt	stack 3
   535                           ; Regs used in _main: [wreg+status,2+status,0+pclath+cstack]
   536                           	line	97
   537                           	
   538  027B                     l3297:	
   539                           ;Transmitter.c: 97: init ();
   540  027B  120A  118A  217B   	fcall	_init
              120A  118A         
   541                           	line	98
   542                           	
   543  0280                     l3299:	
   544                           ;Transmitter.c: 98: cflag=1;
   545  0280  147B               	bsf	(_cflag/8),(_cflag)&7
   546                           	line	99
   547                           	
   548  0281                     l3301:	
   549                           ;Transmitter.c: 99: PORTD=0;
   550  0281  1283               	bcf	status, 5	;RP0=0, select bank0
   551  0282  1303               	bcf	status, 6	;RP1=0, select bank0
   552  0283  0188               	clrf	(8)	;volatile
   553  0284  2A85               	goto	l736
   554                           	line	100
   555                           ;Transmitter.c: 100: while(1){
   556                           	
   557  0285                     l735:	
   558                           	line	102
   559                           	
   560  0285                     l736:	
   561                           	line	100
   562  0285  2A85               	goto	l736
   563                           	
   564  0286                     l737:	
   565                           	line	103
   566                           	
   567  0286                     l738:	
   568                           	global	start
   569  0286  120A  118A  2812   	ljmp	start
   570                           	opt stack 0
   571                           GLOBAL	__end_of_main
   572  0289                     	__end_of_main:
   573 ;; =============== function _main ends ============
   574                           
   575                           	signat	_main,90
   576                           	global	_init
   577                           psect	text194,local,class=CODE,delta=2
   578                           global __ptext194
   579  017B                     __ptext194:
   580                           
   581 ;; *************** function _init *****************
   582 ;; Defined at:
   583 ;;		line 106 in file "D:\EE\Mplabcode\Experiment7\Transimitter\Transmitter.c"
   584 ;; Parameters:    Size  Location     Type
   585 ;;		None
   586 ;; Auto vars:     Size  Location     Type
   587 ;;		None
   588 ;; Return value:  Size  Location     Type
   589 ;;		None               void
   590 ;; Registers used:
   591 ;;		wreg, status,2, status,0, pclath, cstack
   592 ;; Tracked objects:
   593 ;;		On entry : 0/0
   594 ;;		On exit  : 0/0
   595 ;;		Unchanged: 0/0
   596 ;; Data sizes:     COMMON   BANK0   BANK1   BANK3   BANK2
   597 ;;      Params:         0       0       0       0       0
   598 ;;      Locals:         0       0       0       0       0
   599 ;;      Temps:          0       1       0       0       0
   600 ;;      Totals:         0       1       0       0       0
   601 ;;Total ram usage:        1 bytes
   602 ;; Hardware stack levels used:    1
   603 ;; Hardware stack levels required when called:    4
   604 ;; This function calls:
   605 ;;		_delay
   606 ;;		_enable
   607 ;; This function is called by:
   608 ;;		_main
   609 ;; This function uses a non-reentrant model
   610 ;;
   611                           psect	text194
   612                           	file	"D:\EE\Mplabcode\Experiment7\Transimitter\Transmitter.c"
   613                           	line	106
   614                           	global	__size_of_init
   615  006D                     	__size_of_init	equ	__end_of_init-_init
   616                           	
   617  017B                     _init:	
   618                           	opt	stack 3
   619                           ; Regs used in _init: [wreg+status,2+status,0+pclath+cstack]
   620                           	line	107
   621                           	
   622  017B                     l3229:	
   623                           ;Transmitter.c: 107: TRISB=0XF0;
   624  017B  30F0               	movlw	(0F0h)
   625  017C  1683               	bsf	status, 5	;RP0=1, select bank1
   626  017D  1303               	bcf	status, 6	;RP1=0, select bank1
   627  017E  0086               	movwf	(134)^080h	;volatile
   628                           	line	108
   629                           	
   630  017F                     l3231:	
   631                           ;Transmitter.c: 108: TRISE0=1;
   632  017F  1409               	bsf	(1096/8)^080h,(1096)&7
   633                           	line	109
   634                           	
   635  0180                     l3233:	
   636                           ;Transmitter.c: 109: TRISE1=1;
   637  0180  1489               	bsf	(1097/8)^080h,(1097)&7
   638                           	line	110
   639                           	
   640  0181                     l3235:	
   641                           ;Transmitter.c: 110: TRISE2=1;
   642  0181  1509               	bsf	(1098/8)^080h,(1098)&7
   643                           	line	111
   644                           ;Transmitter.c: 111: TRISA=0XFF;
   645  0182  30FF               	movlw	(0FFh)
   646  0183  0085               	movwf	(133)^080h	;volatile
   647                           	line	112
   648                           	
   649  0184                     l3237:	
   650                           ;Transmitter.c: 112: TRISD=0;
   651  0184  0188               	clrf	(136)^080h	;volatile
   652                           	line	113
   653                           	
   654  0185                     l3239:	
   655                           ;Transmitter.c: 113: TRISC=0xC0;
   656  0185  30C0               	movlw	(0C0h)
   657  0186  0087               	movwf	(135)^080h	;volatile
   658                           	line	114
   659                           	
   660  0187                     l3241:	
   661                           ;Transmitter.c: 114: nRBPU=0;
   662  0187  1381               	bcf	(1039/8)^080h,(1039)&7
   663                           	line	116
   664                           ;Transmitter.c: 116: PORTE=0;
   665  0188  1283               	bcf	status, 5	;RP0=0, select bank0
   666  0189  1303               	bcf	status, 6	;RP1=0, select bank0
   667  018A  0189               	clrf	(9)	;volatile
   668                           	line	117
   669                           ;Transmitter.c: 117: PORTB=0;
   670  018B  0186               	clrf	(6)	;volatile
   671                           	line	118
   672                           ;Transmitter.c: 118: PORTC=0;
   673  018C  0187               	clrf	(7)	;volatile
   674                           	line	119
   675                           ;Transmitter.c: 119: PORTA=0;
   676  018D  0185               	clrf	(5)	;volatile
   677                           	line	120
   678                           	
   679  018E                     l3243:	
   680                           ;Transmitter.c: 120: RA3=1;
   681  018E  1585               	bsf	(43/8),(43)&7
   682                           	line	122
   683                           	
   684  018F                     l3245:	
   685                           ;Transmitter.c: 122: delay(1000);
   686  018F  30E8               	movlw	low(03E8h)
   687  0190  00B4               	movwf	(?_delay)
   688  0191  3003               	movlw	high(03E8h)
   689  0192  00B5               	movwf	((?_delay))+1
   690  0193  120A  118A  21E8   	fcall	_delay
              120A  118A         
   691                           	line	123
   692                           	
   693  0198                     l3247:	
   694                           ;Transmitter.c: 123: PORTD=0x38;enable(INS);
   695  0198  3038               	movlw	(038h)
   696  0199  1283               	bcf	status, 5	;RP0=0, select bank0
   697  019A  1303               	bcf	status, 6	;RP1=0, select bank0
   698  019B  0088               	movwf	(8)	;volatile
   699                           	
   700  019C                     l3249:	
   701  019C  3000               	movlw	low(0)
   702  019D  00B9               	movwf	(?_enable)
   703  019E  3000               	movlw	high(0)
   704  019F  00BA               	movwf	((?_enable))+1
   705  01A0  120A  118A  2220   	fcall	_enable
              120A  118A         
   706                           	line	124
   707                           	
   708  01A5                     l3251:	
   709                           ;Transmitter.c: 124: PORTD=0x0C;enable(INS);
   710  01A5  300C               	movlw	(0Ch)
   711  01A6  1283               	bcf	status, 5	;RP0=0, select bank0
   712  01A7  1303               	bcf	status, 6	;RP1=0, select bank0
   713  01A8  0088               	movwf	(8)	;volatile
   714                           	
   715  01A9                     l3253:	
   716  01A9  3000               	movlw	low(0)
   717  01AA  00B9               	movwf	(?_enable)
   718  01AB  3000               	movlw	high(0)
   719  01AC  00BA               	movwf	((?_enable))+1
   720  01AD  120A  118A  2220   	fcall	_enable
              120A  118A         
   721                           	line	126
   722                           	
   723  01B2                     l3255:	
   724                           ;Transmitter.c: 126: SPBRG=38;
   725  01B2  3026               	movlw	(026h)
   726  01B3  1683               	bsf	status, 5	;RP0=1, select bank1
   727  01B4  1303               	bcf	status, 6	;RP1=0, select bank1
   728  01B5  0099               	movwf	(153)^080h	;volatile
   729                           	line	127
   730                           	
   731  01B6                     l3257:	
   732                           ;Transmitter.c: 127: TXSTA=0;SYNC=0;TX9=1;
   733  01B6  0198               	clrf	(152)^080h	;volatile
   734                           	
   735  01B7                     l3259:	
   736  01B7  1218               	bcf	(1220/8)^080h,(1220)&7
   737                           	
   738  01B8                     l3261:	
   739  01B8  1718               	bsf	(1222/8)^080h,(1222)&7
   740                           	line	128
   741                           	
   742  01B9                     l3263:	
   743                           ;Transmitter.c: 128: RCSTA=0;SPEN=1;
   744  01B9  1283               	bcf	status, 5	;RP0=0, select bank0
   745  01BA  1303               	bcf	status, 6	;RP1=0, select bank0
   746  01BB  0198               	clrf	(24)	;volatile
   747                           	
   748  01BC                     l3265:	
   749  01BC  1798               	bsf	(199/8),(199)&7
   750                           	line	129
   751                           	
   752  01BD                     l3267:	
   753                           ;Transmitter.c: 129: TXEN=1;CREN=1;
   754  01BD  1683               	bsf	status, 5	;RP0=1, select bank1
   755  01BE  1303               	bcf	status, 6	;RP1=0, select bank1
   756  01BF  1698               	bsf	(1221/8)^080h,(1221)&7
   757                           	
   758  01C0                     l3269:	
   759  01C0  1283               	bcf	status, 5	;RP0=0, select bank0
   760  01C1  1303               	bcf	status, 6	;RP1=0, select bank0
   761  01C2  1618               	bsf	(196/8),(196)&7
   762                           	line	131
   763                           	
   764  01C3                     l3271:	
   765                           ;Transmitter.c: 131: GIE=1;PEIE=1;TMR2IE=1;TMR2IF=0;ADIF=0;
   766  01C3  178B               	bsf	(95/8),(95)&7
   767                           	
   768  01C4                     l3273:	
   769  01C4  170B               	bsf	(94/8),(94)&7
   770                           	
   771  01C5                     l3275:	
   772  01C5  1683               	bsf	status, 5	;RP0=1, select bank1
   773  01C6  1303               	bcf	status, 6	;RP1=0, select bank1
   774  01C7  148C               	bsf	(1121/8)^080h,(1121)&7
   775                           	
   776  01C8                     l3277:	
   777  01C8  1283               	bcf	status, 5	;RP0=0, select bank0
   778  01C9  1303               	bcf	status, 6	;RP1=0, select bank0
   779  01CA  108C               	bcf	(97/8),(97)&7
   780                           	
   781  01CB                     l3279:	
   782  01CB  130C               	bcf	(102/8),(102)&7
   783                           	line	132
   784                           	
   785  01CC                     l3281:	
   786                           ;Transmitter.c: 132: RCIE=1;
   787  01CC  1683               	bsf	status, 5	;RP0=1, select bank1
   788  01CD  1303               	bcf	status, 6	;RP1=0, select bank1
   789  01CE  168C               	bsf	(1125/8)^080h,(1125)&7
   790                           	line	133
   791                           	
   792  01CF                     l3283:	
   793                           ;Transmitter.c: 133: ADCON0=0B01000001;ADCON1=0B10000000;
   794  01CF  3041               	movlw	(041h)
   795  01D0  1283               	bcf	status, 5	;RP0=0, select bank0
   796  01D1  1303               	bcf	status, 6	;RP1=0, select bank0
   797  01D2  009F               	movwf	(31)	;volatile
   798                           	
   799  01D3                     l3285:	
   800  01D3  3080               	movlw	(080h)
   801  01D4  1683               	bsf	status, 5	;RP0=1, select bank1
   802  01D5  1303               	bcf	status, 6	;RP1=0, select bank1
   803  01D6  009F               	movwf	(159)^080h	;volatile
   804                           	line	134
   805                           	
   806  01D7                     l3287:	
   807                           ;Transmitter.c: 134: T2CON=0B01111111;PR2=255;
   808  01D7  307F               	movlw	(07Fh)
   809  01D8  1283               	bcf	status, 5	;RP0=0, select bank0
   810  01D9  1303               	bcf	status, 6	;RP1=0, select bank0
   811  01DA  0092               	movwf	(18)	;volatile
   812                           	
   813  01DB                     l3289:	
   814  01DB  30FF               	movlw	(0FFh)
   815  01DC  1683               	bsf	status, 5	;RP0=1, select bank1
   816  01DD  1303               	bcf	status, 6	;RP1=0, select bank1
   817  01DE  0092               	movwf	(146)^080h	;volatile
   818                           	line	137
   819                           	
   820  01DF                     l3291:	
   821                           ;Transmitter.c: 137: y=PORTB;RBIF=0;RBIE=1;
   822  01DF  1283               	bcf	status, 5	;RP0=0, select bank0
   823  01E0  1303               	bcf	status, 6	;RP1=0, select bank0
   824  01E1  0806               	movf	(6),w	;volatile
   825  01E2  00BB               	movwf	(??_init+0)+0
   826  01E3  083B               	movf	(??_init+0)+0,w
   827  01E4  00BD               	movwf	(_y)
   828                           	
   829  01E5                     l3293:	
   830  01E5  100B               	bcf	(88/8),(88)&7
   831                           	
   832  01E6                     l3295:	
   833  01E6  158B               	bsf	(91/8),(91)&7
   834                           	line	140
   835                           	
   836  01E7                     l741:	
   837  01E7  0008               	return
   838                           	opt stack 0
   839                           GLOBAL	__end_of_init
   840  01E8                     	__end_of_init:
   841 ;; =============== function _init ends ============
   842                           
   843                           	signat	_init,88
   844                           	global	_enable
   845                           psect	text195,local,class=CODE,delta=2
   846                           global __ptext195
   847  0220                     __ptext195:
   848                           
   849 ;; *************** function _enable *****************
   850 ;; Defined at:
   851 ;;		line 147 in file "D:\EE\Mplabcode\Experiment7\Transimitter\Transmitter.c"
   852 ;; Parameters:    Size  Location     Type
   853 ;;  t               2    5[BANK0 ] int 
   854 ;; Auto vars:     Size  Location     Type
   855 ;;		None
   856 ;; Return value:  Size  Location     Type
   857 ;;		None               void
   858 ;; Registers used:
   859 ;;		wreg, status,2, status,0, pclath, cstack
   860 ;; Tracked objects:
   861 ;;		On entry : 0/0
   862 ;;		On exit  : 0/0
   863 ;;		Unchanged: 0/0
   864 ;; Data sizes:     COMMON   BANK0   BANK1   BANK3   BANK2
   865 ;;      Params:         0       2       0       0       0
   866 ;;      Locals:         0       0       0       0       0
   867 ;;      Temps:          0       0       0       0       0
   868 ;;      Totals:         0       2       0       0       0
   869 ;;Total ram usage:        2 bytes
   870 ;; Hardware stack levels used:    1
   871 ;; Hardware stack levels required when called:    3
   872 ;; This function calls:
   873 ;;		_delay
   874 ;; This function is called by:
   875 ;;		_init
   876 ;;		_show_a
   877 ;;		_show
   878 ;; This function uses a non-reentrant model
   879 ;;
   880                           psect	text195
   881                           	file	"D:\EE\Mplabcode\Experiment7\Transimitter\Transmitter.c"
   882                           	line	147
   883                           	global	__size_of_enable
   884  001B                     	__size_of_enable	equ	__end_of_enable-_enable
   885                           	
   886  0220                     _enable:	
   887                           	opt	stack 3
   888                           ; Regs used in _enable: [wreg+status,2+status,0+pclath+cstack]
   889                           	line	148
   890                           	
   891  0220                     l3223:	
   892                           ;Transmitter.c: 148: RA5=t;
   893  0220  1283               	bcf	status, 5	;RP0=0, select bank0
   894  0221  1303               	bcf	status, 6	;RP1=0, select bank0
   895  0222  1839               	btfsc	(enable@t),0
   896  0223  2A25               	goto	u3351
   897  0224  2A29               	goto	u3350
   898                           	
   899  0225                     u3351:
   900  0225  1283               	bcf	status, 5	;RP0=0, select bank0
   901  0226  1303               	bcf	status, 6	;RP1=0, select bank0
   902  0227  1685               	bsf	(45/8),(45)&7
   903  0228  2A2C               	goto	u3364
   904  0229                     u3350:
   905  0229  1283               	bcf	status, 5	;RP0=0, select bank0
   906  022A  1303               	bcf	status, 6	;RP1=0, select bank0
   907  022B  1285               	bcf	(45/8),(45)&7
   908  022C                     u3364:
   909                           	line	149
   910                           ;Transmitter.c: 149: RA4=0;
   911  022C  1205               	bcf	(44/8),(44)&7
   912                           	line	150
   913                           ;Transmitter.c: 150: RA3=0;
   914  022D  1185               	bcf	(43/8),(43)&7
   915                           	line	151
   916                           	
   917  022E                     l3225:	
   918                           ;Transmitter.c: 151: delay(30);
   919  022E  301E               	movlw	low(01Eh)
   920  022F  00B4               	movwf	(?_delay)
   921  0230  3000               	movlw	high(01Eh)
   922  0231  00B5               	movwf	((?_delay))+1
   923  0232  120A  118A  21E8   	fcall	_delay
              120A  118A         
   924                           	line	152
   925                           	
   926  0237                     l3227:	
   927                           ;Transmitter.c: 152: RA3=1;
   928  0237  1283               	bcf	status, 5	;RP0=0, select bank0
   929  0238  1303               	bcf	status, 6	;RP1=0, select bank0
   930  0239  1585               	bsf	(43/8),(43)&7
   931                           	line	153
   932                           	
   933  023A                     l750:	
   934  023A  0008               	return
   935                           	opt stack 0
   936                           GLOBAL	__end_of_enable
   937  023B                     	__end_of_enable:
   938 ;; =============== function _enable ends ============
   939                           
   940                           	signat	_enable,4216
   941                           	global	_delay
   942                           psect	text196,local,class=CODE,delta=2
   943                           global __ptext196
   944  01E8                     __ptext196:
   945                           
   946 ;; *************** function _delay *****************
   947 ;; Defined at:
   948 ;;		line 142 in file "D:\EE\Mplabcode\Experiment7\Transimitter\Transmitter.c"
   949 ;; Parameters:    Size  Location     Type
   950 ;;  t               2    0[BANK0 ] int 
   951 ;; Auto vars:     Size  Location     Type
   952 ;;  i               2    3[BANK0 ] int 
   953 ;; Return value:  Size  Location     Type
   954 ;;		None               void
   955 ;; Registers used:
   956 ;;		wreg, status,2
   957 ;; Tracked objects:
   958 ;;		On entry : 0/0
   959 ;;		On exit  : 0/0
   960 ;;		Unchanged: 0/0
   961 ;; Data sizes:     COMMON   BANK0   BANK1   BANK3   BANK2
   962 ;;      Params:         0       2       0       0       0
   963 ;;      Locals:         0       2       0       0       0
   964 ;;      Temps:          0       1       0       0       0
   965 ;;      Totals:         0       5       0       0       0
   966 ;;Total ram usage:        5 bytes
   967 ;; Hardware stack levels used:    1
   968 ;; Hardware stack levels required when called:    2
   969 ;; This function calls:
   970 ;;		Nothing
   971 ;; This function is called by:
   972 ;;		_init
   973 ;;		_enable
   974 ;; This function uses a non-reentrant model
   975 ;;
   976                           psect	text196
   977                           	file	"D:\EE\Mplabcode\Experiment7\Transimitter\Transmitter.c"
   978                           	line	142
   979                           	global	__size_of_delay
   980  001D                     	__size_of_delay	equ	__end_of_delay-_delay
   981                           	
   982  01E8                     _delay:	
   983                           	opt	stack 3
   984                           ; Regs used in _delay: [wreg+status,2]
   985                           	line	143
   986                           	
   987  01E8                     l3079:	
   988                           ;Transmitter.c: 143: for (int i=0;i<t;++i) ;
   989  01E8  1283               	bcf	status, 5	;RP0=0, select bank0
   990  01E9  1303               	bcf	status, 6	;RP1=0, select bank0
   991  01EA  01B7               	clrf	(delay@i)
   992  01EB  01B8               	clrf	(delay@i+1)
   993  01EC  29F5               	goto	l744
   994                           	
   995  01ED                     l745:	
   996                           	
   997  01ED                     l3081:	
   998  01ED  3001               	movlw	low(01h)
   999  01EE  1283               	bcf	status, 5	;RP0=0, select bank0
  1000  01EF  1303               	bcf	status, 6	;RP1=0, select bank0
  1001  01F0  07B7               	addwf	(delay@i),f
  1002  01F1  1803               	skipnc
  1003  01F2  0AB8               	incf	(delay@i+1),f
  1004  01F3  3000               	movlw	high(01h)
  1005  01F4  07B8               	addwf	(delay@i+1),f
  1006                           	
  1007  01F5                     l744:	
  1008  01F5  0838               	movf	(delay@i+1),w
  1009  01F6  3A80               	xorlw	80h
  1010  01F7  00B6               	movwf	(??_delay+0)+0
  1011  01F8  0835               	movf	(delay@t+1),w
  1012  01F9  3A80               	xorlw	80h
  1013  01FA  0236               	subwf	(??_delay+0)+0,w
  1014  01FB  1D03               	skipz
  1015  01FC  29FF               	goto	u3045
  1016  01FD  0834               	movf	(delay@t),w
  1017  01FE  0237               	subwf	(delay@i),w
  1018  01FF                     u3045:
  1019                           
  1020  01FF  1C03               	skipc
  1021  0200  2A02               	goto	u3041
  1022  0201  2A03               	goto	u3040
  1023  0202                     u3041:
  1024  0202  29ED               	goto	l3081
  1025  0203                     u3040:
  1026  0203  2A04               	goto	l747
  1027                           	
  1028  0204                     l746:	
  1029                           	line	144
  1030                           	
  1031  0204                     l747:	
  1032  0204  0008               	return
  1033                           	opt stack 0
  1034                           GLOBAL	__end_of_delay
  1035  0205                     	__end_of_delay:
  1036 ;; =============== function _delay ends ============
  1037                           
  1038                           	signat	_delay,4216
  1039                           	global	_tmr2
  1040                           psect	text197,local,class=CODE,delta=2
  1041                           global __ptext197
  1042  0015                     __ptext197:
  1043                           
  1044 ;; *************** function _tmr2 *****************
  1045 ;; Defined at:
  1046 ;;		line 30 in file "D:\EE\Mplabcode\Experiment7\Transimitter\Transmitter.c"
  1047 ;; Parameters:    Size  Location     Type
  1048 ;;		None
  1049 ;; Auto vars:     Size  Location     Type
  1050 ;;		None
  1051 ;; Return value:  Size  Location     Type
  1052 ;;		None               void
  1053 ;; Registers used:
  1054 ;;		wreg, status,2, status,0, pclath, cstack
  1055 ;; Tracked objects:
  1056 ;;		On entry : 0/0
  1057 ;;		On exit  : 0/0
  1058 ;;		Unchanged: 0/0
  1059 ;; Data sizes:     COMMON   BANK0   BANK1   BANK3   BANK2
  1060 ;;      Params:         0       0       0       0       0
  1061 ;;      Locals:         0       0       0       0       0
  1062 ;;      Temps:          6       0       0       0       0
  1063 ;;      Totals:         6       0       0       0       0
  1064 ;;Total ram usage:        6 bytes
  1065 ;; Hardware stack levels used:    1
  1066 ;; Hardware stack levels required when called:    1
  1067 ;; This function calls:
  1068 ;;		i1_delay
  1069 ;; This function is called by:
  1070 ;;		Interrupt level 1
  1071 ;; This function uses a non-reentrant model
  1072 ;;
  1073                           psect	text197
  1074                           	file	"D:\EE\Mplabcode\Experiment7\Transimitter\Transmitter.c"
  1075                           	line	30
  1076                           	global	__size_of_tmr2
  1077  0166                     	__size_of_tmr2	equ	__end_of_tmr2-_tmr2
  1078                           	
  1079  0015                     _tmr2:	
  1080                           	opt	stack 3
  1081                           ; Regs used in _tmr2: [wreg+status,2+status,0+pclath+cstack]
  1082                           psect	intentry,class=CODE,delta=2
  1083                           global __pintentry
  1084  0004                     __pintentry:
  1085                           global interrupt_function
  1086  0004                     interrupt_function:
  1087                           	global saved_w
  1088  007E                     	saved_w	set	btemp+0
  1089  0004  00FE               	movwf	saved_w
  1090  0005  0E03               	swapf	status,w
  1091  0006  00F7               	movwf	(??_tmr2+2)
  1092  0007  0804               	movf	fsr0,w
  1093  0008  00F8               	movwf	(??_tmr2+3)
  1094  0009  080A               	movf	pclath,w
  1095  000A  00F9               	movwf	(??_tmr2+4)
  1096  000B  1283               	bcf	status, 5	;RP0=0, select bank0
  1097  000C  1303               	bcf	status, 6	;RP1=0, select bank0
  1098  000D  087F               	movf	btemp+1,w
  1099  000E  00FA               	movwf	(??_tmr2+5)
  1100  000F  120A  118A  2815   	ljmp	_tmr2
  1101                           psect	text197
  1102                           	line	31
  1103                           	
  1104  0015                     i1l2979:	
  1105                           ;Transmitter.c: 31: if(RCIF==1){
  1106  0015  1E8C               	btfss	(101/8),(101)&7
  1107  0016  2818               	goto	u268_21
  1108  0017  2819               	goto	u268_20
  1109  0018                     u268_21:
  1110  0018  284E               	goto	i1l707
  1111  0019                     u268_20:
  1112                           	line	32
  1113                           	
  1114  0019                     i1l2981:	
  1115                           ;Transmitter.c: 32: cdata=RCREG;
  1116  0019  081A               	movf	(26),w	;volatile
  1117  001A  00F5               	movwf	(??_tmr2+0)+0
  1118  001B  0875               	movf	(??_tmr2+0)+0,w
  1119  001C  00FC               	movwf	(_cdata)
  1120                           	line	33
  1121                           ;Transmitter.c: 33: PORTD=RCREG;
  1122  001D  081A               	movf	(26),w	;volatile
  1123  001E  0088               	movwf	(8)	;volatile
  1124                           	line	35
  1125                           	
  1126  001F                     i1l2983:	
  1127                           ;Transmitter.c: 35: CHS0=cdata&0B1;
  1128  001F  187C               	btfsc	(_cdata),0
  1129  0020  2822               	goto	u269_21
  1130  0021  2826               	goto	u269_20
  1131                           	
  1132  0022                     u269_21:
  1133  0022  1283               	bcf	status, 5	;RP0=0, select bank0
  1134  0023  1303               	bcf	status, 6	;RP1=0, select bank0
  1135  0024  159F               	bsf	(251/8),(251)&7
  1136  0025  2829               	goto	u270_24
  1137  0026                     u269_20:
  1138  0026  1283               	bcf	status, 5	;RP0=0, select bank0
  1139  0027  1303               	bcf	status, 6	;RP1=0, select bank0
  1140  0028  119F               	bcf	(251/8),(251)&7
  1141  0029                     u270_24:
  1142                           	line	36
  1143                           	
  1144  0029                     i1l2985:	
  1145                           ;Transmitter.c: 36: CHS1=(cdata&0B10)>>1;
  1146  0029  087C               	movf	(_cdata),w
  1147  002A  00F5               	movwf	(??_tmr2+0)+0
  1148  002B  3001               	movlw	01h
  1149  002C                     u271_25:
  1150  002C  1003               	clrc
  1151  002D  0CF5               	rrf	(??_tmr2+0)+0,f
  1152  002E  3EFF               	addlw	-1
  1153  002F  1D03               	skipz
  1154  0030  282C               	goto	u271_25
  1155  0031  1875               	btfsc	0+(??_tmr2+0)+0,0
  1156  0032  2834               	goto	u272_21
  1157  0033  2838               	goto	u272_20
  1158                           	
  1159  0034                     u272_21:
  1160  0034  1283               	bcf	status, 5	;RP0=0, select bank0
  1161  0035  1303               	bcf	status, 6	;RP1=0, select bank0
  1162  0036  161F               	bsf	(252/8),(252)&7
  1163  0037  283B               	goto	u273_24
  1164  0038                     u272_20:
  1165  0038  1283               	bcf	status, 5	;RP0=0, select bank0
  1166  0039  1303               	bcf	status, 6	;RP1=0, select bank0
  1167  003A  121F               	bcf	(252/8),(252)&7
  1168  003B                     u273_24:
  1169                           	line	37
  1170                           	
  1171  003B                     i1l2987:	
  1172                           ;Transmitter.c: 37: CHS2=(cdata&0B100)>>2;
  1173  003B  087C               	movf	(_cdata),w
  1174  003C  00F5               	movwf	(??_tmr2+0)+0
  1175  003D  3002               	movlw	02h
  1176  003E                     u274_25:
  1177  003E  1003               	clrc
  1178  003F  0CF5               	rrf	(??_tmr2+0)+0,f
  1179  0040  3EFF               	addlw	-1
  1180  0041  1D03               	skipz
  1181  0042  283E               	goto	u274_25
  1182  0043  1875               	btfsc	0+(??_tmr2+0)+0,0
  1183  0044  2846               	goto	u275_21
  1184  0045  284A               	goto	u275_20
  1185                           	
  1186  0046                     u275_21:
  1187  0046  1283               	bcf	status, 5	;RP0=0, select bank0
  1188  0047  1303               	bcf	status, 6	;RP1=0, select bank0
  1189  0048  169F               	bsf	(253/8),(253)&7
  1190  0049  284D               	goto	u276_24
  1191  004A                     u275_20:
  1192  004A  1283               	bcf	status, 5	;RP0=0, select bank0
  1193  004B  1303               	bcf	status, 6	;RP1=0, select bank0
  1194  004C  129F               	bcf	(253/8),(253)&7
  1195  004D                     u276_24:
  1196                           	line	38
  1197                           ;Transmitter.c: 38: }
  1198  004D  2970               	goto	i1l732
  1199                           	line	39
  1200                           	
  1201  004E                     i1l707:	
  1202                           ;Transmitter.c: 39: else if(TMR2IF==1){
  1203  004E  1C8C               	btfss	(97/8),(97)&7
  1204  004F  2851               	goto	u277_21
  1205  0050  2852               	goto	u277_20
  1206  0051                     u277_21:
  1207  0051  288B               	goto	i1l709
  1208  0052                     u277_20:
  1209                           	line	40
  1210                           	
  1211  0052                     i1l2989:	
  1212                           ;Transmitter.c: 40: flag=!flag;
  1213  0052  3002               	movlw	1<<((_flag)&7)
  1214  0053  06FB               	xorwf	((_flag)/8),f
  1215                           	line	41
  1216                           	
  1217  0054                     i1l2991:	
  1218                           ;Transmitter.c: 41: TMR2IF=0;
  1219  0054  108C               	bcf	(97/8),(97)&7
  1220                           	line	42
  1221                           	
  1222  0055                     i1l2993:	
  1223                           ;Transmitter.c: 42: GO_nDONE=1;
  1224  0055  151F               	bsf	(250/8),(250)&7
  1225                           	line	43
  1226                           ;Transmitter.c: 43: while(ADIF==0);
  1227  0056  2857               	goto	i1l710
  1228                           	
  1229  0057                     i1l711:	
  1230                           	
  1231  0057                     i1l710:	
  1232  0057  1F0C               	btfss	(102/8),(102)&7
  1233  0058  285A               	goto	u278_21
  1234  0059  285B               	goto	u278_20
  1235  005A                     u278_21:
  1236  005A  2857               	goto	i1l710
  1237  005B                     u278_20:
  1238  005B  285C               	goto	i1l2995
  1239                           	
  1240  005C                     i1l712:	
  1241                           	line	44
  1242                           	
  1243  005C                     i1l2995:	
  1244                           ;Transmitter.c: 44: data.c[1]=ADRESH;
  1245  005C  081E               	movf	(30),w	;volatile
  1246  005D  00F5               	movwf	(??_tmr2+0)+0
  1247  005E  0875               	movf	(??_tmr2+0)+0,w
  1248  005F  00BF               	movwf	0+(_data)+01h
  1249                           	line	45
  1250                           	
  1251  0060                     i1l2997:	
  1252                           ;Transmitter.c: 45: data.c[1]|=cdata<<5;
  1253  0060  087C               	movf	(_cdata),w
  1254  0061  00F5               	movwf	(??_tmr2+0)+0
  1255  0062  3004               	movlw	(05h)-1
  1256  0063                     u279_25:
  1257  0063  1003               	clrc
  1258  0064  0DF5               	rlf	(??_tmr2+0)+0,f
  1259  0065  3EFF               	addlw	-1
  1260  0066  1D03               	skipz
  1261  0067  2863               	goto	u279_25
  1262  0068  1003               	clrc
  1263  0069  0D75               	rlf	(??_tmr2+0)+0,w
  1264  006A  00F6               	movwf	(??_tmr2+1)+0
  1265  006B  0876               	movf	(??_tmr2+1)+0,w
  1266  006C  04BF               	iorwf	0+(_data)+01h,f
  1267                           	line	46
  1268                           	
  1269  006D                     i1l2999:	
  1270                           ;Transmitter.c: 46: data.c[0]=ADRESL;
  1271  006D  1683               	bsf	status, 5	;RP0=1, select bank1
  1272  006E  1303               	bcf	status, 6	;RP1=0, select bank1
  1273  006F  081E               	movf	(158)^080h,w	;volatile
  1274  0070  00F5               	movwf	(??_tmr2+0)+0
  1275  0071  0875               	movf	(??_tmr2+0)+0,w
  1276  0072  1283               	bcf	status, 5	;RP0=0, select bank0
  1277  0073  1303               	bcf	status, 6	;RP1=0, select bank0
  1278  0074  00BE               	movwf	(_data)
  1279                           	line	47
  1280                           	
  1281  0075                     i1l3001:	
  1282                           ;Transmitter.c: 47: ADIF=0;
  1283  0075  130C               	bcf	(102/8),(102)&7
  1284                           	line	49
  1285                           	
  1286  0076                     i1l3003:	
  1287                           ;Transmitter.c: 49: if(flag){
  1288  0076  1CFB               	btfss	(_flag/8),(_flag)&7
  1289  0077  2879               	goto	u280_21
  1290  0078  287A               	goto	u280_20
  1291  0079                     u280_21:
  1292  0079  2882               	goto	i1l713
  1293  007A                     u280_20:
  1294                           	line	50
  1295                           	
  1296  007A                     i1l3005:	
  1297                           ;Transmitter.c: 50: TX9D=1;
  1298  007A  1683               	bsf	status, 5	;RP0=1, select bank1
  1299  007B  1303               	bcf	status, 6	;RP1=0, select bank1
  1300  007C  1418               	bsf	(1216/8)^080h,(1216)&7
  1301                           	line	51
  1302                           	
  1303  007D                     i1l3007:	
  1304                           ;Transmitter.c: 51: TXREG=data.c[1];
  1305  007D  1283               	bcf	status, 5	;RP0=0, select bank0
  1306  007E  1303               	bcf	status, 6	;RP1=0, select bank0
  1307  007F  083F               	movf	0+(_data)+01h,w
  1308  0080  0099               	movwf	(25)	;volatile
  1309                           	line	52
  1310                           ;Transmitter.c: 52: }
  1311  0081  2970               	goto	i1l732
  1312                           	line	53
  1313                           	
  1314  0082                     i1l713:	
  1315                           	line	54
  1316                           ;Transmitter.c: 53: else{
  1317                           ;Transmitter.c: 54: TX9D=0;
  1318  0082  1683               	bsf	status, 5	;RP0=1, select bank1
  1319  0083  1303               	bcf	status, 6	;RP1=0, select bank1
  1320  0084  1018               	bcf	(1216/8)^080h,(1216)&7
  1321                           	line	55
  1322                           	
  1323  0085                     i1l3009:	
  1324                           ;Transmitter.c: 55: TXREG=data.c[0];
  1325  0085  1283               	bcf	status, 5	;RP0=0, select bank0
  1326  0086  1303               	bcf	status, 6	;RP1=0, select bank0
  1327  0087  083E               	movf	(_data),w
  1328  0088  0099               	movwf	(25)	;volatile
  1329  0089  2970               	goto	i1l732
  1330                           	line	56
  1331                           	
  1332  008A                     i1l714:	
  1333                           	line	57
  1334                           ;Transmitter.c: 56: }
  1335                           ;Transmitter.c: 57: }
  1336  008A  2970               	goto	i1l732
  1337                           	line	58
  1338                           	
  1339  008B                     i1l709:	
  1340                           ;Transmitter.c: 58: else if(RBIF==1){
  1341  008B  1C0B               	btfss	(88/8),(88)&7
  1342  008C  288E               	goto	u281_21
  1343  008D  288F               	goto	u281_20
  1344  008E                     u281_21:
  1345  008E  2970               	goto	i1l732
  1346  008F                     u281_20:
  1347                           	line	59
  1348                           	
  1349  008F                     i1l3011:	
  1350                           ;Transmitter.c: 59: y=y^PORTB;
  1351  008F  083D               	movf	(_y),w
  1352  0090  0606               	xorwf	(6),w	;volatile
  1353  0091  00F5               	movwf	(??_tmr2+0)+0
  1354  0092  0875               	movf	(??_tmr2+0)+0,w
  1355  0093  00BD               	movwf	(_y)
  1356                           	line	60
  1357                           	
  1358  0094                     i1l3013:	
  1359                           ;Transmitter.c: 60: PORTD=y;
  1360  0094  083D               	movf	(_y),w
  1361  0095  0088               	movwf	(8)	;volatile
  1362                           	line	61
  1363                           	
  1364  0096                     i1l3015:	
  1365                           ;Transmitter.c: 61: TRISB=0X0F;
  1366  0096  300F               	movlw	(0Fh)
  1367  0097  1683               	bsf	status, 5	;RP0=1, select bank1
  1368  0098  1303               	bcf	status, 6	;RP1=0, select bank1
  1369  0099  0086               	movwf	(134)^080h	;volatile
  1370                           	line	62
  1371                           	
  1372  009A                     i1l3017:	
  1373                           ;Transmitter.c: 62: delay(10);
  1374  009A  300A               	movlw	low(0Ah)
  1375  009B  00F0               	movwf	(?i1_delay)
  1376  009C  3000               	movlw	high(0Ah)
  1377  009D  00F1               	movwf	((?i1_delay))+1
  1378  009E  120A  118A  223B   	fcall	i1_delay
              120A  118A         
  1379                           	line	63
  1380                           	
  1381  00A3                     i1l3019:	
  1382                           ;Transmitter.c: 63: x=PORTB&0X0F;
  1383  00A3  1283               	bcf	status, 5	;RP0=0, select bank0
  1384  00A4  1303               	bcf	status, 6	;RP1=0, select bank0
  1385  00A5  0806               	movf	(6),w
  1386  00A6  390F               	andlw	0Fh
  1387  00A7  00F5               	movwf	(??_tmr2+0)+0
  1388  00A8  0875               	movf	(??_tmr2+0)+0,w
  1389  00A9  00BC               	movwf	(_x)
  1390                           	line	64
  1391                           	
  1392  00AA                     i1l3021:	
  1393                           ;Transmitter.c: 64: PORTD=x;
  1394  00AA  083C               	movf	(_x),w
  1395  00AB  0088               	movwf	(8)	;volatile
  1396                           	line	65
  1397                           	
  1398  00AC                     i1l3023:	
  1399                           ;Transmitter.c: 65: z=y|x;
  1400  00AC  083D               	movf	(_y),w
  1401  00AD  043C               	iorwf	(_x),w
  1402  00AE  00F5               	movwf	(??_tmr2+0)+0
  1403  00AF  0875               	movf	(??_tmr2+0)+0,w
  1404  00B0  00FD               	movwf	(_z)
  1405                           	line	66
  1406                           	
  1407  00B1                     i1l3025:	
  1408                           ;Transmitter.c: 66: if(z==0x1E)
  1409  00B1  087D               	movf	(_z),w
  1410  00B2  3A1E               	xorlw	01Eh
  1411  00B3  1D03               	skipz
  1412  00B4  28B6               	goto	u282_21
  1413  00B5  28B7               	goto	u282_20
  1414  00B6                     u282_21:
  1415  00B6  28B9               	goto	i1l3029
  1416  00B7                     u282_20:
  1417                           	line	67
  1418                           	
  1419  00B7                     i1l3027:	
  1420                           ;Transmitter.c: 67: cdata=0;
  1421  00B7  01FC               	clrf	(_cdata)
  1422  00B8  290C               	goto	i1l3057
  1423                           	line	68
  1424                           	
  1425  00B9                     i1l717:	
  1426                           	
  1427  00B9                     i1l3029:	
  1428                           ;Transmitter.c: 68: else if(z==0x2E)
  1429  00B9  087D               	movf	(_z),w
  1430  00BA  3A2E               	xorlw	02Eh
  1431  00BB  1D03               	skipz
  1432  00BC  28BE               	goto	u283_21
  1433  00BD  28BF               	goto	u283_20
  1434  00BE                     u283_21:
  1435  00BE  28C3               	goto	i1l3033
  1436  00BF                     u283_20:
  1437                           	line	69
  1438                           	
  1439  00BF                     i1l3031:	
  1440                           ;Transmitter.c: 69: cdata=1;
  1441  00BF  01FC               	clrf	(_cdata)
  1442  00C0  1403               	bsf	status,0
  1443  00C1  0DFC               	rlf	(_cdata),f
  1444  00C2  290C               	goto	i1l3057
  1445                           	line	70
  1446                           	
  1447  00C3                     i1l719:	
  1448                           	
  1449  00C3                     i1l3033:	
  1450                           ;Transmitter.c: 70: else if(z==0x4E)
  1451  00C3  087D               	movf	(_z),w
  1452  00C4  3A4E               	xorlw	04Eh
  1453  00C5  1D03               	skipz
  1454  00C6  28C8               	goto	u284_21
  1455  00C7  28C9               	goto	u284_20
  1456  00C8                     u284_21:
  1457  00C8  28CE               	goto	i1l3037
  1458  00C9                     u284_20:
  1459                           	line	71
  1460                           	
  1461  00C9                     i1l3035:	
  1462                           ;Transmitter.c: 71: cdata=2;
  1463  00C9  3002               	movlw	(02h)
  1464  00CA  00F5               	movwf	(??_tmr2+0)+0
  1465  00CB  0875               	movf	(??_tmr2+0)+0,w
  1466  00CC  00FC               	movwf	(_cdata)
  1467  00CD  290C               	goto	i1l3057
  1468                           	line	72
  1469                           	
  1470  00CE                     i1l721:	
  1471                           	
  1472  00CE                     i1l3037:	
  1473                           ;Transmitter.c: 72: else if(z==0x8E)
  1474  00CE  087D               	movf	(_z),w
  1475  00CF  3A8E               	xorlw	08Eh
  1476  00D0  1D03               	skipz
  1477  00D1  28D3               	goto	u285_21
  1478  00D2  28D4               	goto	u285_20
  1479  00D3                     u285_21:
  1480  00D3  28D9               	goto	i1l3041
  1481  00D4                     u285_20:
  1482                           	line	73
  1483                           	
  1484  00D4                     i1l3039:	
  1485                           ;Transmitter.c: 73: cdata=3;
  1486  00D4  3003               	movlw	(03h)
  1487  00D5  00F5               	movwf	(??_tmr2+0)+0
  1488  00D6  0875               	movf	(??_tmr2+0)+0,w
  1489  00D7  00FC               	movwf	(_cdata)
  1490  00D8  290C               	goto	i1l3057
  1491                           	line	74
  1492                           	
  1493  00D9                     i1l723:	
  1494                           	
  1495  00D9                     i1l3041:	
  1496                           ;Transmitter.c: 74: else if(z==0x1D)
  1497  00D9  087D               	movf	(_z),w
  1498  00DA  3A1D               	xorlw	01Dh
  1499  00DB  1D03               	skipz
  1500  00DC  28DE               	goto	u286_21
  1501  00DD  28DF               	goto	u286_20
  1502  00DE                     u286_21:
  1503  00DE  28E4               	goto	i1l3045
  1504  00DF                     u286_20:
  1505                           	line	75
  1506                           	
  1507  00DF                     i1l3043:	
  1508                           ;Transmitter.c: 75: cdata=4;
  1509  00DF  3004               	movlw	(04h)
  1510  00E0  00F5               	movwf	(??_tmr2+0)+0
  1511  00E1  0875               	movf	(??_tmr2+0)+0,w
  1512  00E2  00FC               	movwf	(_cdata)
  1513  00E3  290C               	goto	i1l3057
  1514                           	line	76
  1515                           	
  1516  00E4                     i1l725:	
  1517                           	
  1518  00E4                     i1l3045:	
  1519                           ;Transmitter.c: 76: else if(z==0x2D)
  1520  00E4  087D               	movf	(_z),w
  1521  00E5  3A2D               	xorlw	02Dh
  1522  00E6  1D03               	skipz
  1523  00E7  28E9               	goto	u287_21
  1524  00E8  28EA               	goto	u287_20
  1525  00E9                     u287_21:
  1526  00E9  28EF               	goto	i1l3049
  1527  00EA                     u287_20:
  1528                           	line	77
  1529                           	
  1530  00EA                     i1l3047:	
  1531                           ;Transmitter.c: 77: cdata=5;
  1532  00EA  3005               	movlw	(05h)
  1533  00EB  00F5               	movwf	(??_tmr2+0)+0
  1534  00EC  0875               	movf	(??_tmr2+0)+0,w
  1535  00ED  00FC               	movwf	(_cdata)
  1536  00EE  290C               	goto	i1l3057
  1537                           	line	78
  1538                           	
  1539  00EF                     i1l727:	
  1540                           	
  1541  00EF                     i1l3049:	
  1542                           ;Transmitter.c: 78: else if(z==0x4D)
  1543  00EF  087D               	movf	(_z),w
  1544  00F0  3A4D               	xorlw	04Dh
  1545  00F1  1D03               	skipz
  1546  00F2  28F4               	goto	u288_21
  1547  00F3  28F5               	goto	u288_20
  1548  00F4                     u288_21:
  1549  00F4  28FA               	goto	i1l3053
  1550  00F5                     u288_20:
  1551                           	line	79
  1552                           	
  1553  00F5                     i1l3051:	
  1554                           ;Transmitter.c: 79: cdata=6;
  1555  00F5  3006               	movlw	(06h)
  1556  00F6  00F5               	movwf	(??_tmr2+0)+0
  1557  00F7  0875               	movf	(??_tmr2+0)+0,w
  1558  00F8  00FC               	movwf	(_cdata)
  1559  00F9  290C               	goto	i1l3057
  1560                           	line	80
  1561                           	
  1562  00FA                     i1l729:	
  1563                           	
  1564  00FA                     i1l3053:	
  1565                           ;Transmitter.c: 80: else if(z==0x8D)
  1566  00FA  087D               	movf	(_z),w
  1567  00FB  3A8D               	xorlw	08Dh
  1568  00FC  1D03               	skipz
  1569  00FD  28FF               	goto	u289_21
  1570  00FE  2900               	goto	u289_20
  1571  00FF                     u289_21:
  1572  00FF  290C               	goto	i1l3057
  1573  0100                     u289_20:
  1574                           	line	81
  1575                           	
  1576  0100                     i1l3055:	
  1577                           ;Transmitter.c: 81: cdata=7;
  1578  0100  3007               	movlw	(07h)
  1579  0101  00F5               	movwf	(??_tmr2+0)+0
  1580  0102  0875               	movf	(??_tmr2+0)+0,w
  1581  0103  00FC               	movwf	(_cdata)
  1582  0104  290C               	goto	i1l3057
  1583                           	
  1584  0105                     i1l731:	
  1585  0105  290C               	goto	i1l3057
  1586                           	line	82
  1587                           	
  1588  0106                     i1l730:	
  1589  0106  290C               	goto	i1l3057
  1590                           	
  1591  0107                     i1l728:	
  1592  0107  290C               	goto	i1l3057
  1593                           	
  1594  0108                     i1l726:	
  1595  0108  290C               	goto	i1l3057
  1596                           	
  1597  0109                     i1l724:	
  1598  0109  290C               	goto	i1l3057
  1599                           	
  1600  010A                     i1l722:	
  1601  010A  290C               	goto	i1l3057
  1602                           	
  1603  010B                     i1l720:	
  1604  010B  290C               	goto	i1l3057
  1605                           	
  1606  010C                     i1l718:	
  1607                           	
  1608  010C                     i1l3057:	
  1609                           ;Transmitter.c: 82: CHS0=cdata&0B1;
  1610  010C  187C               	btfsc	(_cdata),0
  1611  010D  290F               	goto	u290_21
  1612  010E  2913               	goto	u290_20
  1613                           	
  1614  010F                     u290_21:
  1615  010F  1283               	bcf	status, 5	;RP0=0, select bank0
  1616  0110  1303               	bcf	status, 6	;RP1=0, select bank0
  1617  0111  159F               	bsf	(251/8),(251)&7
  1618  0112  2916               	goto	u291_24
  1619  0113                     u290_20:
  1620  0113  1283               	bcf	status, 5	;RP0=0, select bank0
  1621  0114  1303               	bcf	status, 6	;RP1=0, select bank0
  1622  0115  119F               	bcf	(251/8),(251)&7
  1623  0116                     u291_24:
  1624                           	line	83
  1625                           	
  1626  0116                     i1l3059:	
  1627                           ;Transmitter.c: 83: CHS1=(cdata&0B10)>>1;
  1628  0116  087C               	movf	(_cdata),w
  1629  0117  00F5               	movwf	(??_tmr2+0)+0
  1630  0118  3001               	movlw	01h
  1631  0119                     u292_25:
  1632  0119  1003               	clrc
  1633  011A  0CF5               	rrf	(??_tmr2+0)+0,f
  1634  011B  3EFF               	addlw	-1
  1635  011C  1D03               	skipz
  1636  011D  2919               	goto	u292_25
  1637  011E  1875               	btfsc	0+(??_tmr2+0)+0,0
  1638  011F  2921               	goto	u293_21
  1639  0120  2925               	goto	u293_20
  1640                           	
  1641  0121                     u293_21:
  1642  0121  1283               	bcf	status, 5	;RP0=0, select bank0
  1643  0122  1303               	bcf	status, 6	;RP1=0, select bank0
  1644  0123  161F               	bsf	(252/8),(252)&7
  1645  0124  2928               	goto	u294_24
  1646  0125                     u293_20:
  1647  0125  1283               	bcf	status, 5	;RP0=0, select bank0
  1648  0126  1303               	bcf	status, 6	;RP1=0, select bank0
  1649  0127  121F               	bcf	(252/8),(252)&7
  1650  0128                     u294_24:
  1651                           	line	84
  1652                           	
  1653  0128                     i1l3061:	
  1654                           ;Transmitter.c: 84: CHS2=(cdata&0B100)>>2;
  1655  0128  087C               	movf	(_cdata),w
  1656  0129  00F5               	movwf	(??_tmr2+0)+0
  1657  012A  3002               	movlw	02h
  1658  012B                     u295_25:
  1659  012B  1003               	clrc
  1660  012C  0CF5               	rrf	(??_tmr2+0)+0,f
  1661  012D  3EFF               	addlw	-1
  1662  012E  1D03               	skipz
  1663  012F  292B               	goto	u295_25
  1664  0130  1875               	btfsc	0+(??_tmr2+0)+0,0
  1665  0131  2933               	goto	u296_21
  1666  0132  2937               	goto	u296_20
  1667                           	
  1668  0133                     u296_21:
  1669  0133  1283               	bcf	status, 5	;RP0=0, select bank0
  1670  0134  1303               	bcf	status, 6	;RP1=0, select bank0
  1671  0135  169F               	bsf	(253/8),(253)&7
  1672  0136  293A               	goto	u297_24
  1673  0137                     u296_20:
  1674  0137  1283               	bcf	status, 5	;RP0=0, select bank0
  1675  0138  1303               	bcf	status, 6	;RP1=0, select bank0
  1676  0139  129F               	bcf	(253/8),(253)&7
  1677  013A                     u297_24:
  1678                           	line	85
  1679                           	
  1680  013A                     i1l3063:	
  1681                           ;Transmitter.c: 85: RD0=CHS0;
  1682  013A  199F               	btfsc	(251/8),(251)&7
  1683  013B  293D               	goto	u298_21
  1684  013C  2941               	goto	u298_20
  1685                           	
  1686  013D                     u298_21:
  1687  013D  1283               	bcf	status, 5	;RP0=0, select bank0
  1688  013E  1303               	bcf	status, 6	;RP1=0, select bank0
  1689  013F  1408               	bsf	(64/8),(64)&7
  1690  0140  2944               	goto	u299_24
  1691  0141                     u298_20:
  1692  0141  1283               	bcf	status, 5	;RP0=0, select bank0
  1693  0142  1303               	bcf	status, 6	;RP1=0, select bank0
  1694  0143  1008               	bcf	(64/8),(64)&7
  1695  0144                     u299_24:
  1696                           	line	86
  1697                           	
  1698  0144                     i1l3065:	
  1699                           ;Transmitter.c: 86: RD1=CHS1;
  1700  0144  1A1F               	btfsc	(252/8),(252)&7
  1701  0145  2947               	goto	u300_21
  1702  0146  294B               	goto	u300_20
  1703                           	
  1704  0147                     u300_21:
  1705  0147  1283               	bcf	status, 5	;RP0=0, select bank0
  1706  0148  1303               	bcf	status, 6	;RP1=0, select bank0
  1707  0149  1488               	bsf	(65/8),(65)&7
  1708  014A  294E               	goto	u301_24
  1709  014B                     u300_20:
  1710  014B  1283               	bcf	status, 5	;RP0=0, select bank0
  1711  014C  1303               	bcf	status, 6	;RP1=0, select bank0
  1712  014D  1088               	bcf	(65/8),(65)&7
  1713  014E                     u301_24:
  1714                           	line	87
  1715                           	
  1716  014E                     i1l3067:	
  1717                           ;Transmitter.c: 87: RD2=CHS2;
  1718  014E  1A9F               	btfsc	(253/8),(253)&7
  1719  014F  2951               	goto	u302_21
  1720  0150  2955               	goto	u302_20
  1721                           	
  1722  0151                     u302_21:
  1723  0151  1283               	bcf	status, 5	;RP0=0, select bank0
  1724  0152  1303               	bcf	status, 6	;RP1=0, select bank0
  1725  0153  1508               	bsf	(66/8),(66)&7
  1726  0154  2958               	goto	u303_24
  1727  0155                     u302_20:
  1728  0155  1283               	bcf	status, 5	;RP0=0, select bank0
  1729  0156  1303               	bcf	status, 6	;RP1=0, select bank0
  1730  0157  1108               	bcf	(66/8),(66)&7
  1731  0158                     u303_24:
  1732                           	line	88
  1733                           	
  1734  0158                     i1l3069:	
  1735                           ;Transmitter.c: 88: delay(10);
  1736  0158  300A               	movlw	low(0Ah)
  1737  0159  00F0               	movwf	(?i1_delay)
  1738  015A  3000               	movlw	high(0Ah)
  1739  015B  00F1               	movwf	((?i1_delay))+1
  1740  015C  120A  118A  223B   	fcall	i1_delay
              120A  118A         
  1741                           	line	89
  1742                           	
  1743  0161                     i1l3071:	
  1744                           ;Transmitter.c: 89: TRISB=0XF0;
  1745  0161  30F0               	movlw	(0F0h)
  1746  0162  1683               	bsf	status, 5	;RP0=1, select bank1
  1747  0163  1303               	bcf	status, 6	;RP1=0, select bank1
  1748  0164  0086               	movwf	(134)^080h	;volatile
  1749                           	line	90
  1750                           	
  1751  0165                     i1l3073:	
  1752                           ;Transmitter.c: 90: PORTB=0;
  1753  0165  1283               	bcf	status, 5	;RP0=0, select bank0
  1754  0166  1303               	bcf	status, 6	;RP1=0, select bank0
  1755  0167  0186               	clrf	(6)	;volatile
  1756                           	line	91
  1757                           	
  1758  0168                     i1l3075:	
  1759                           ;Transmitter.c: 91: y=PORTB;
  1760  0168  0806               	movf	(6),w	;volatile
  1761  0169  00F5               	movwf	(??_tmr2+0)+0
  1762  016A  0875               	movf	(??_tmr2+0)+0,w
  1763  016B  00BD               	movwf	(_y)
  1764                           	line	92
  1765                           	
  1766  016C                     i1l3077:	
  1767                           ;Transmitter.c: 92: RBIF=0;
  1768  016C  100B               	bcf	(88/8),(88)&7
  1769  016D  2970               	goto	i1l732
  1770                           	line	93
  1771                           	
  1772  016E                     i1l716:	
  1773  016E  2970               	goto	i1l732
  1774                           	line	94
  1775                           	
  1776  016F                     i1l715:	
  1777  016F  2970               	goto	i1l732
  1778                           	
  1779  0170                     i1l708:	
  1780                           	
  1781  0170                     i1l732:	
  1782  0170  087A               	movf	(??_tmr2+5),w
  1783  0171  00FF               	movwf	btemp+1
  1784  0172  0879               	movf	(??_tmr2+4),w
  1785  0173  008A               	movwf	pclath
  1786  0174  0878               	movf	(??_tmr2+3),w
  1787  0175  0084               	movwf	fsr0
  1788  0176  0E77               	swapf	(??_tmr2+2)^0FFFFFF80h,w
  1789  0177  0083               	movwf	status
  1790  0178  0EFE               	swapf	saved_w,f
  1791  0179  0E7E               	swapf	saved_w,w
  1792  017A  0009               	retfie
  1793                           	opt stack 0
  1794                           GLOBAL	__end_of_tmr2
  1795  017B                     	__end_of_tmr2:
  1796 ;; =============== function _tmr2 ends ============
  1797                           
  1798                           	signat	_tmr2,88
  1799                           	global	i1_delay
  1800                           psect	text198,local,class=CODE,delta=2
  1801                           global __ptext198
  1802  023B                     __ptext198:
  1803                           
  1804 ;; *************** function i1_delay *****************
  1805 ;; Defined at:
  1806 ;;		line 142 in file "D:\EE\Mplabcode\Experiment7\Transimitter\Transmitter.c"
  1807 ;; Parameters:    Size  Location     Type
  1808 ;;  delay           2    0[COMMON] int 
  1809 ;; Auto vars:     Size  Location     Type
  1810 ;;  delay           2    3[COMMON] int 
  1811 ;; Return value:  Size  Location     Type
  1812 ;;		None               void
  1813 ;; Registers used:
  1814 ;;		wreg, status,2
  1815 ;; Tracked objects:
  1816 ;;		On entry : 0/0
  1817 ;;		On exit  : 0/0
  1818 ;;		Unchanged: 0/0
  1819 ;; Data sizes:     COMMON   BANK0   BANK1   BANK3   BANK2
  1820 ;;      Params:         2       0       0       0       0
  1821 ;;      Locals:         2       0       0       0       0
  1822 ;;      Temps:          1       0       0       0       0
  1823 ;;      Totals:         5       0       0       0       0
  1824 ;;Total ram usage:        5 bytes
  1825 ;; Hardware stack levels used:    1
  1826 ;; This function calls:
  1827 ;;		Nothing
  1828 ;; This function is called by:
  1829 ;;		_tmr2
  1830 ;; This function uses a non-reentrant model
  1831 ;;
  1832                           psect	text198
  1833                           	file	"D:\EE\Mplabcode\Experiment7\Transimitter\Transmitter.c"
  1834                           	line	142
  1835                           	global	__size_ofi1_delay
  1836  0019                     	__size_ofi1_delay	equ	__end_ofi1_delay-i1_delay
  1837                           	
  1838  023B                     i1_delay:	
  1839                           	opt	stack 3
  1840                           ; Regs used in i1_delay: [wreg+status,2]
  1841                           	line	143
  1842                           	
  1843  023B                     i1l3219:	
  1844                           ;Transmitter.c: 143: for (int i=0;i<t;++i) ;
  1845  023B  01F3               	clrf	(i1delay@i)
  1846  023C  01F4               	clrf	(i1delay@i+1)
  1847  023D  2A44               	goto	i1l744
  1848                           	
  1849  023E                     i1l745:	
  1850                           	
  1851  023E                     i1l3221:	
  1852  023E  3001               	movlw	low(01h)
  1853  023F  07F3               	addwf	(i1delay@i),f
  1854  0240  1803               	skipnc
  1855  0241  0AF4               	incf	(i1delay@i+1),f
  1856  0242  3000               	movlw	high(01h)
  1857  0243  07F4               	addwf	(i1delay@i+1),f
  1858                           	
  1859  0244                     i1l744:	
  1860  0244  0874               	movf	(i1delay@i+1),w
  1861  0245  3A80               	xorlw	80h
  1862  0246  00F2               	movwf	(??i1_delay+0)+0
  1863  0247  0871               	movf	(i1delay@t+1),w
  1864  0248  3A80               	xorlw	80h
  1865  0249  0272               	subwf	(??i1_delay+0)+0,w
  1866  024A  1D03               	skipz
  1867  024B  2A4E               	goto	u334_25
  1868  024C  0870               	movf	(i1delay@t),w
  1869  024D  0273               	subwf	(i1delay@i),w
  1870  024E                     u334_25:
  1871                           
  1872  024E  1C03               	skipc
  1873  024F  2A51               	goto	u334_21
  1874  0250  2A52               	goto	u334_20
  1875  0251                     u334_21:
  1876  0251  2A3E               	goto	i1l3221
  1877  0252                     u334_20:
  1878  0252  2A53               	goto	i1l747
  1879                           	
  1880  0253                     i1l746:	
  1881                           	line	144
  1882                           	
  1883  0253                     i1l747:	
  1884  0253  0008               	return
  1885                           	opt stack 0
  1886                           GLOBAL	__end_ofi1_delay
  1887  0254                     	__end_ofi1_delay:
  1888 ;; =============== function i1_delay ends ============
  1889                           
  1890                           	signat	i1_delay,88
  1891                           psect	text199,local,class=CODE,delta=2
  1892                           global __ptext199
  1893  0000                     __ptext199:
  1894                           	global	btemp
  1895  007E                     	btemp set 07Eh
  1896                           
  1897                           	DABS	1,126,2	;btemp
  1898                           	global	wtemp0
  1899  007E                     	wtemp0 set btemp


HI-TECH Software PICC Macro Assembler V9.82 build 9453 
Symbol Table                                                                                   Mon Nov 29 22:36:44 2021

                   _s 0020                     _x 003C                     _y 003D                     _z 007D  
                   pc 0002                    _RD 0C60                    _WR 0C61                    fsr 0004  
                 l741 01E7                   l750 023A                   l735 0285                   l744 01F5  
                 l736 0285                   l745 01ED                   l737 0286                   l746 0204  
                 l738 0286                   l747 0204                   _GIE 005F                   _RA3 002B  
                 _RA4 002C                   _RA5 002D                   _RD0 0040                   _RD1 0041  
                 _RD2 0042                   _PR2 0092                   _TX9 04C6                   fsr0 0004  
                 indf 0000                  l3301 0281                  l3223 0220                  l3231 017F  
                l3081 01ED                  l3225 022E                  l3241 0187                  l3233 0180  
                l3227 0237                  l3251 01A5                  l3243 018E                  l3235 0181  
                l3261 01B8                  l3253 01A9                  l3245 018F                  l3237 0184  
                l3229 017B                  l3079 01E8                  l3271 01C3                  l3263 01B9  
                l3255 01B2                  l3247 0198                  l3239 0185                  l3281 01CC  
                l3273 01C4                  l3265 01BC                  l3257 01B6                  l3249 019C  
                l3291 01DF                  l3283 01CF                  l3275 01C5                  l3267 01BD  
                l3259 01B7                  l3293 01E5                  l3285 01D3                  l3277 01C8  
                l3269 01C0                  l3295 01E6                  l3287 01D7                  l3279 01CB  
                l3289 01DB                  l3297 027B                  l3299 0280                  _ADIF 0066  
                _CHS0 00FB                  _CHS1 00FC                  _CHS2 00FD                  _CREN 00C4  
                u3040 0203                  u3041 0202                  u3045 01FF                  u3350 0229  
                u3351 0225                  u3364 022C                  _PEIE 005E                  _RBIE 005B  
                _RBIF 0058                  _RCIE 0465                  _RCIF 0065                  _SPEN 00C7  
                _TX9D 04C0                  _WREN 0C62                  _TXEN 04C5                  _SYNC 04C4  
                _data 003E                  _flag 03D9                  _main 027B                  _init 017B  
                _tmr2 0015                  btemp 007E       __end_ofi1_delay 0254                  start 0012  
               ?_main 0070                 ?_init 0070                 _EEADR 010D                 ?_tmr2 0070  
               _CARRY 0018                 _T2CON 0012                 i1l710 0057                 i1l711 0057  
               i1l720 010B                 i1l712 005C                 i1l721 00CE                 i1l713 0082  
               i1l722 010A                 i1l730 0106                 i1l714 008A                 i1l715 016F  
               i1l731 0105                 i1l723 00D9                 i1l707 004E                 i1l708 0170  
               i1l716 016E                 i1l724 0109                 i1l732 0170                 i1l725 00E4  
               i1l717 00B9                 i1l709 008B                 i1l718 010C                 i1l726 0108  
               i1l727 00EF                 i1l719 00C3                 i1l744 0244                 i1l728 0107  
               i1l745 023E                 i1l729 00FA                 i1l746 0253                 i1l747 0253  
               _RCREG 001A                 _RCSTA 0018                 _SPBRG 0099                 _PORTA 0005  
               _PORTB 0006                 _PORTC 0007                 _PORTD 0008                 _PORTE 0009  
               _TRISA 0085                 _TRISB 0086                 _TRISC 0087                 _TRISD 0088  
               _TXREG 0019                 _TXSTA 0098                 _nRBPU 040F                 _cdata 007C  
               _cflag 03D8                 _delay 01E8        __pbitbssCOMMON 03D8                 pclath 000A  
               status 0003                 wtemp0 007E          __end_of_main 0289          __end_of_init 01E8  
        __end_of_tmr2 017B                ??_main 003C                ??_init 003B                ??_tmr2 0075  
              ?_delay 0034                _ADCON0 001F                _ADCON1 009F                _ADRESH 001E  
              _ADRESL 009E                _EEDATA 010C                _EECON1 018C                _EECON2 018D  
           ??i1_delay 0072                i1l3001 0075                i1l3011 008F                i1l3003 0076  
              i1l3021 00AA                i1l3013 0094                i1l3005 007A                i1l3031 00BF  
              i1l3023 00AC                i1l3015 0096                i1l3007 007D                i1l3041 00D9  
              i1l3033 00C3                i1l3025 00B1                i1l3017 009A                i1l3009 0085  
              i1l3051 00F5                i1l3043 00DF                i1l3035 00C9                i1l3027 00B7  
              i1l3019 00A3                i1l3221 023E                i1l3061 0128                i1l3053 00FA  
              i1l3045 00E4                i1l3037 00CE                i1l3029 00B9                i1l3071 0161  
              i1l3063 013A                i1l3055 0100                i1l3047 00EA                i1l3039 00D4  
              i1l3073 0165                i1l3065 0144                i1l3049 00EF                i1l3057 010C  
              i1l3219 023B                i1l3075 0168                i1l3067 014E                i1l3059 0116  
              i1l3077 016C                i1l3069 0158                u300_20 014B                u300_21 0147  
              i1l2981 0019                i1l2991 0054                i1l2983 001F                i1l2993 0055  
              i1l2985 0029                i1l2995 005C                i1l2987 003B                i1l2979 0015  
              u301_24 014E                i1l2997 0060                i1l2989 0052                i1l2999 006D  
              u302_20 0155                u302_21 0151                u303_24 0158                u334_20 0252  
              u334_21 0251                u270_24 0029                u334_25 024E                u271_25 002C  
              u280_20 007A                u272_20 0038                u280_21 0079                u272_21 0034  
              u281_20 008F                u281_21 008E                u273_24 003B                u290_20 0113  
              u282_20 00B7                u290_21 010F                u282_21 00B6                u274_25 003E  
              u283_20 00BF                u275_20 004A                u283_21 00BE                u275_21 0046  
              u291_24 0116                u284_20 00C9                u268_20 0019                u284_21 00C8  
              u268_21 0018                u276_24 004D                u292_25 0119                u293_20 0125  
              u285_20 00D4                u277_20 0052                u269_20 0026                u293_21 0121  
              u285_21 00D3                u277_21 0051                u269_21 0022                u286_20 00DF  
              u278_20 005B                u286_21 00DE                u278_21 005A                u294_24 0128  
              u287_20 00EA                u287_21 00E9                u295_25 012B                u279_25 0063  
              u296_20 0137                u288_20 00F5                u296_21 0133                u288_21 00F4  
              u289_20 0100                u289_21 00FF                u297_24 013A                u298_20 0141  
              u298_21 013D                u299_24 0144                _TMR2IE 0461                _TMR2IF 0061  
              _TRISE0 0448                _TRISE1 0449                _TRISE2 044A                _enable 0220  
              delay@i 0037                delay@t 0034                saved_w 007E        __pcstackCOMMON 0070  
        __pidataBANK0 0254         __end_of_delay 0205               ??_delay 0036            __pbssBANK0 003C  
          __pmaintext 027B            __pintentry 0004               ?_enable 0039               i1_delay 023B  
     __size_of_enable 001B               enable@t 0039  end_of_initialization 021C               init_ram 026C  
      __end_of_enable 023B   start_initialization 0205              ??_enable 003B           __pdataBANK0 0020  
         __pbssCOMMON 007C         __pcstackBANK0 0034              ?i1_delay 0070             __ptext194 017B  
           __ptext195 0220             __ptext196 01E8             __ptext197 0015             __ptext198 023B  
           __ptext199 0000        __size_of_delay 001D     interrupt_function 0004              _GO_nDONE 00FA  
            i1delay@i 0073              i1delay@t 0070      __size_ofi1_delay 0019             init_fetch 0268  
       __size_of_main 000E         __size_of_init 006D         __size_of_tmr2 0166              intlevel1 0000  
