

HI-TECH Software PIC LITE Macro Assembler V9.82 build 9453 
                                                                                               Sun Nov 28 15:51:16 2021

HI-TECH Software Omniscient Code Generator (Lite mode) build 9453
     1  0000                     opt subtitle "HI-TECH Software Omniscient Code Generator (Lite mode) build 9453"
     2                           
     3                           opt pagewidth 120
     4                           
     5                           	opt lm
     6                           
     7                           	processor	16F877A
     8                           clrc	macro
     9                           	bcf	3,0
    10  0000                     	endm
    11                           clrz	macro
    12                           	bcf	3,2
    13  0000                     	endm
    14                           setc	macro
    15                           	bsf	3,0
    16  0000                     	endm
    17                           setz	macro
    18                           	bsf	3,2
    19  0000                     	endm
    20                           skipc	macro
    21                           	btfss	3,0
    22  0000                     	endm
    23                           skipz	macro
    24                           	btfss	3,2
    25  0000                     	endm
    26                           skipnc	macro
    27                           	btfsc	3,0
    28  0000                     	endm
    29                           skipnz	macro
    30                           	btfsc	3,2
    31  0000                     	endm
    32  0000                     indf	equ	0
    33  0000                     indf0	equ	0
    34  0002                     pc	equ	2
    35  0002                     pcl	equ	2
    36  0003                     status	equ	3
    37  0004                     fsr	equ	4
    38  0004                     fsr0	equ	4
    39  0001                     c	equ	1
    40  0000                     z	equ	0
    41  000A                     pclath	equ	10
    42                           # 4 "D:\EE\Mplabcode\Task_2\Transmitter.c"
    43                           	psect config,class=CONFIG,delta=2 ;#
    44                           # 4 "D:\EE\Mplabcode\Task_2\Transmitter.c"
    45  2007  FF29               	dw 0xff29 ;#
    46                           	FNCALL	_main,_init
    47                           	FNCALL	_main,_show
    48                           	FNCALL	_show,_enable
    49                           	FNCALL	_show,_show_a
    50                           	FNCALL	_show_a,_tostring
    51                           	FNCALL	_show_a,_enable
    52                           	FNCALL	_init,_delay
    53                           	FNCALL	_init,_enable
    54                           	FNCALL	_tostring,___almod
    55                           	FNCALL	_tostring,___aldiv
    56                           	FNCALL	_enable,_delay
    57                           	FNROOT	_main
    58                           	FNCALL	intlevel1,_ccp1
    59                           	global	intlevel1
    60                           	FNROOT	intlevel1
    61                           	global	_s
    62                           	global	_cnt
    63                           psect	idataBANK0,class=CODE,space=0,delta=2
    64                           global __pidataBANK0
    65  037C                     __pidataBANK0:
    66                           	file	"D:\EE\Mplabcode\Task_2\Transmitter.c"
    67                           	line	12
    68                           
    69                           ;initializer for _s
    70  037C  3431               	retlw	031h
    71  037D  3430               	retlw	030h
    72  037E  3430               	retlw	030h
    73  037F  3430               	retlw	030h
    74  0380  3430               	retlw	030h
    75  0381  3430               	retlw	030h
    76  0382  3430               	retlw	030h
    77  0383  3400               	retlw	0
    78  0384  3400               	retlw	0
    79  0385  3400               	retlw	0
    80  0386  3400               	retlw	0
    81  0387  3400               	retlw	0
    82  0388  3400               	retlw	0
    83  0389  3400               	retlw	0
    84  038A  3400               	retlw	0
    85  038B  3400               	retlw	0
    86  038C  3400               	retlw	0
    87  038D  3400               	retlw	0
    88  038E  3400               	retlw	0
    89  038F  3400               	retlw	0
    90                           psect	idataCOMMON,class=CODE,space=0,delta=2
    91                           global __pidataCOMMON
    92  03A3                     __pidataCOMMON:
    93                           	line	21
    94                           
    95                           ;initializer for _cnt
    96  03A3  3418               	retlw	018h
    97                           	global	_data
    98                           	global	_showdata
    99                           	global	_end
   100                           	global	_icnt
   101                           	global	_tout
   102                           	global	_hflag
   103                           	global	_showflag
   104                           	global	_tsmflag
   105                           	global	_upflag
   106                           	global	_CCP1CON
   107  0017                     _CCP1CON	set	23
   108                           	global	_CCPR1H
   109  0016                     _CCPR1H	set	22
   110                           	global	_CCPR1L
   111  0015                     _CCPR1L	set	21
   112                           	global	_PORTD
   113  0008                     _PORTD	set	8
   114                           	global	_T1CON
   115  0010                     _T1CON	set	16
   116                           	global	_TMR1H
   117  000F                     _TMR1H	set	15
   118                           	global	_TMR1L
   119  000E                     _TMR1L	set	14
   120                           	global	_CARRY
   121  0018                     _CARRY	set	24
   122                           	global	_CCP1IF
   123  0062                     _CCP1IF	set	98
   124                           	global	_GIE
   125  005F                     _GIE	set	95
   126                           	global	_PEIE
   127  005E                     _PEIE	set	94
   128                           	global	_RA3
   129  002B                     _RA3	set	43
   130                           	global	_RA4
   131  002C                     _RA4	set	44
   132                           	global	_RA5
   133  002D                     _RA5	set	45
   134                           	global	_RC7
   135  003F                     _RC7	set	63
   136                           	global	_TMR1IF
   137  0060                     _TMR1IF	set	96
   138                           	global	_TMR1ON
   139  0080                     _TMR1ON	set	128
   140                           	global	_ADCON1
   141  009F                     _ADCON1	set	159
   142                           	global	_TRISA
   143  0085                     _TRISA	set	133
   144                           	global	_TRISB
   145  0086                     _TRISB	set	134
   146                           	global	_TRISD
   147  0088                     _TRISD	set	136
   148                           	global	_CCP1IE
   149  0462                     _CCP1IE	set	1122
   150                           	global	_TMR1IE
   151  0460                     _TMR1IE	set	1120
   152                           	global	_TRISC2
   153  043A                     _TRISC2	set	1082
   154                           	global	_TRISC4
   155  043C                     _TRISC4	set	1084
   156                           	global	_TRISC7
   157  043F                     _TRISC7	set	1087
   158                           	global	_EEADR
   159  010D                     _EEADR	set	269
   160                           	global	_EEDATA
   161  010C                     _EEDATA	set	268
   162                           	global	_EECON1
   163  018C                     _EECON1	set	396
   164                           	global	_EECON2
   165  018D                     _EECON2	set	397
   166                           	global	_RD
   167  0C60                     _RD	set	3168
   168                           	global	_WR
   169  0C61                     _WR	set	3169
   170                           	global	_WREN
   171  0C62                     _WREN	set	3170
   172                           	file	"Task_2.as"
   173                           	line	#
   174                           psect cinit,class=CODE,delta=2
   175                           global start_initialization
   176  02E5                     start_initialization:
   177                           
   178                           psect	bitbssCOMMON,class=COMMON,bit,space=1
   179                           global __pbitbssCOMMON
   180  03A8                     __pbitbssCOMMON:
   181  03A8                     _hflag:
   182  03A8                            ds      1
   183                           
   184  03A9                     _showflag:
   185  03A9                            ds      1
   186                           
   187  03AA                     _tsmflag:
   188  03AA                            ds      1
   189                           
   190  03AB                     _upflag:
   191  03AB                            ds      1
   192                           
   193                           psect	bssCOMMON,class=COMMON,space=1
   194                           global __pbssCOMMON
   195  0076                     __pbssCOMMON:
   196  0076                     _end:
   197  0076                            ds      1
   198                           
   199  0077                     _icnt:
   200  0077                            ds      1
   201                           
   202  0078                     _tout:
   203  0078                            ds      1
   204                           
   205                           psect	dataCOMMON,class=COMMON,space=1
   206                           global __pdataCOMMON
   207  0079                     __pdataCOMMON:
   208                           	file	"D:\EE\Mplabcode\Task_2\Transmitter.c"
   209  0079                     _cnt:
   210  0079                            ds      1
   211                           
   212                           psect	bssBANK0,class=BANK0,space=1
   213                           global __pbssBANK0
   214  0050                     __pbssBANK0:
   215  0050                     _data:
   216  0050                            ds      4
   217                           
   218  0054                     _showdata:
   219  0054                            ds      4
   220                           
   221                           psect	dataBANK0,class=BANK0,space=1
   222                           global __pdataBANK0
   223  003C                     __pdataBANK0:
   224                           	file	"D:\EE\Mplabcode\Task_2\Transmitter.c"
   225                           	line	12
   226  003C                     _s:
   227  003C                            ds      20
   228                           
   229                           ; Clear objects allocated to BITCOMMON
   230                           psect cinit,class=CODE,delta=2
   231  02E5  01F5               	clrf	((__pbitbssCOMMON/8)+0)&07Fh
   232                           ; Clear objects allocated to COMMON
   233                           psect cinit,class=CODE,delta=2
   234  02E6  01F6               	clrf	((__pbssCOMMON)+0)&07Fh
   235  02E7  01F7               	clrf	((__pbssCOMMON)+1)&07Fh
   236  02E8  01F8               	clrf	((__pbssCOMMON)+2)&07Fh
   237                           ; Clear objects allocated to BANK0
   238                           psect cinit,class=CODE,delta=2
   239  02E9  01D0               	clrf	((__pbssBANK0)+0)&07Fh
   240  02EA  01D1               	clrf	((__pbssBANK0)+1)&07Fh
   241  02EB  01D2               	clrf	((__pbssBANK0)+2)&07Fh
   242  02EC  01D3               	clrf	((__pbssBANK0)+3)&07Fh
   243  02ED  01D4               	clrf	((__pbssBANK0)+4)&07Fh
   244  02EE  01D5               	clrf	((__pbssBANK0)+5)&07Fh
   245  02EF  01D6               	clrf	((__pbssBANK0)+6)&07Fh
   246  02F0  01D7               	clrf	((__pbssBANK0)+7)&07Fh
   247                           global btemp
   248                           psect inittext,class=CODE,delta=2
   249                           global init_fetch,btemp
   250                           ;	Called with low address in FSR and high address in W
   251  0390                     init_fetch:
   252  0390  087E               	movf btemp,w
   253  0391  008A               	movwf pclath
   254  0392  087F               	movf btemp+1,w
   255  0393  0082               	movwf pc
   256                           global init_ram
   257                           ;Called with:
   258                           ;	high address of idata address in btemp 
   259                           ;	low address of idata address in btemp+1 
   260                           ;	low address of data in FSR
   261                           ;	high address + 1 of data in btemp-1
   262  0394                     init_ram:
   263  0394  120A  118A  2390   	fcall init_fetch
              120A  118A         
   264  0399  0080               	movwf indf,f
   265  039A  0A84               	incf fsr,f
   266  039B  0804               	movf fsr,w
   267  039C  067D               	xorwf btemp-1,w
   268  039D  1903               	btfsc status,2
   269  039E  3400               	retlw 0
   270  039F  0AFF               	incf btemp+1,f
   271  03A0  1903               	btfsc status,2
   272  03A1  0AFE               	incf btemp,f
   273  03A2  2B94               	goto init_ram
   274                           ; Initialize objects allocated to BANK0
   275                           psect cinit,class=CODE,delta=2
   276                           global init_ram, __pidataBANK0
   277  02F1  1383               	bcf	status, 7	;select IRP bank0
   278  02F2  3050               	movlw low(__pdataBANK0+20)
   279  02F3  00FD               	movwf btemp-1,f
   280  02F4  3003               	movlw high(__pidataBANK0)
   281  02F5  00FE               	movwf btemp,f
   282  02F6  307C               	movlw low(__pidataBANK0)
   283  02F7  00FF               	movwf btemp+1,f
   284  02F8  303C               	movlw low(__pdataBANK0)
   285  02F9  0084               	movwf fsr,f
   286  02FA  120A  118A  2394   	fcall init_ram
              120A  118A         
   287                           ; Initialize objects allocated to COMMON
   288                           	global __pidataCOMMON
   289                           psect cinit,class=CODE,delta=2
   290  02FF  120A  118A  23A3   	fcall	__pidataCOMMON+0		;fetch initializer
              120A  118A         
   291  0304  00F9               	movwf	__pdataCOMMON+0&07fh		
   292                           psect cinit,class=CODE,delta=2
   293                           global end_of_initialization
   294                           
   295                           ;End of C runtime variable initialization code
   296                           
   297  0305                     end_of_initialization:
   298  0305  0183               clrf status
   299  0306  120A  118A  2B09   ljmp _main	;jump to C main() function
   300                           psect	cstackCOMMON,class=COMMON,space=1
   301                           global __pcstackCOMMON
   302  0070                     __pcstackCOMMON:
   303                           	global	?_init
   304  0070                     ?_init:	; 0 bytes @ 0x0
   305                           	global	?_show
   306  0070                     ?_show:	; 0 bytes @ 0x0
   307                           	global	?_ccp1
   308  0070                     ?_ccp1:	; 0 bytes @ 0x0
   309                           	global	??_ccp1
   310  0070                     ??_ccp1:	; 0 bytes @ 0x0
   311                           	global	?_main
   312  0070                     ?_main:	; 2 bytes @ 0x0
   313  0070                     	ds	5
   314                           psect	cstackBANK0,class=BANK0,space=1
   315                           global __pcstackBANK0
   316  0020                     __pcstackBANK0:
   317                           	global	?_delay
   318  0020                     ?_delay:	; 0 bytes @ 0x0
   319                           	global	?___almod
   320  0020                     ?___almod:	; 4 bytes @ 0x0
   321                           	global	?___aldiv
   322  0020                     ?___aldiv:	; 4 bytes @ 0x0
   323                           	global	delay@t
   324  0020                     delay@t:	; 2 bytes @ 0x0
   325                           	global	___almod@divisor
   326  0020                     ___almod@divisor:	; 4 bytes @ 0x0
   327                           	global	___aldiv@divisor
   328  0020                     ___aldiv@divisor:	; 4 bytes @ 0x0
   329  0020                     	ds	2
   330                           	global	??_delay
   331  0022                     ??_delay:	; 0 bytes @ 0x2
   332  0022                     	ds	1
   333                           	global	delay@i
   334  0023                     delay@i:	; 2 bytes @ 0x3
   335  0023                     	ds	1
   336                           	global	___almod@dividend
   337  0024                     ___almod@dividend:	; 4 bytes @ 0x4
   338                           	global	___aldiv@dividend
   339  0024                     ___aldiv@dividend:	; 4 bytes @ 0x4
   340  0024                     	ds	1
   341                           	global	?_enable
   342  0025                     ?_enable:	; 0 bytes @ 0x5
   343                           	global	enable@t
   344  0025                     enable@t:	; 2 bytes @ 0x5
   345  0025                     	ds	2
   346                           	global	??_init
   347  0027                     ??_init:	; 0 bytes @ 0x7
   348                           	global	??_enable
   349  0027                     ??_enable:	; 0 bytes @ 0x7
   350  0027                     	ds	1
   351                           	global	??___almod
   352  0028                     ??___almod:	; 0 bytes @ 0x8
   353                           	global	??___aldiv
   354  0028                     ??___aldiv:	; 0 bytes @ 0x8
   355  0028                     	ds	1
   356                           	global	___almod@counter
   357  0029                     ___almod@counter:	; 1 bytes @ 0x9
   358                           	global	___aldiv@counter
   359  0029                     ___aldiv@counter:	; 1 bytes @ 0x9
   360  0029                     	ds	1
   361                           	global	___almod@sign
   362  002A                     ___almod@sign:	; 1 bytes @ 0xA
   363                           	global	___aldiv@sign
   364  002A                     ___aldiv@sign:	; 1 bytes @ 0xA
   365  002A                     	ds	1
   366                           	global	___aldiv@quotient
   367  002B                     ___aldiv@quotient:	; 4 bytes @ 0xB
   368  002B                     	ds	4
   369                           	global	?_tostring
   370  002F                     ?_tostring:	; 0 bytes @ 0xF
   371                           	global	tostring@x
   372  002F                     tostring@x:	; 4 bytes @ 0xF
   373  002F                     	ds	4
   374                           	global	??_tostring
   375  0033                     ??_tostring:	; 0 bytes @ 0x13
   376  0033                     	ds	1
   377                           	global	tostring@i
   378  0034                     tostring@i:	; 2 bytes @ 0x14
   379  0034                     	ds	2
   380                           	global	?_show_a
   381  0036                     ?_show_a:	; 0 bytes @ 0x16
   382                           	global	show_a@x
   383  0036                     show_a@x:	; 4 bytes @ 0x16
   384  0036                     	ds	4
   385                           	global	??_show_a
   386  003A                     ??_show_a:	; 0 bytes @ 0x1A
   387                           	global	show_a@i
   388  003A                     show_a@i:	; 2 bytes @ 0x1A
   389  003A                     	ds	2
   390                           	global	??_show
   391  003C                     ??_show:	; 0 bytes @ 0x1C
   392                           	global	??_main
   393  003C                     ??_main:	; 0 bytes @ 0x1C
   394 ;;Data sizes: Strings 0, constant 0, data 21, bss 11, persistent 0 stack 0
   395 ;;Auto spaces:   Size  Autos    Used
   396 ;; COMMON          14      5      10
   397 ;; BANK0           80     28      56
   398 ;; BANK1           80      0       0
   399 ;; BANK3           96      0       0
   400 ;; BANK2           96      0       0
   401                           
   402 ;;
   403 ;; Pointer list with targets:
   404                           
   405 ;; ?___aldiv	long  size(1) Largest target is 0
   406 ;;
   407 ;; ?___almod	long  size(1) Largest target is 0
   408 ;;
   409                           
   410                           
   411 ;;
   412 ;; Critical Paths under _main in COMMON
   413 ;;
   414 ;;   None.
   415 ;;
   416 ;; Critical Paths under _ccp1 in COMMON
   417 ;;
   418 ;;   None.
   419 ;;
   420 ;; Critical Paths under _main in BANK0
   421 ;;
   422 ;;   _show->_show_a
   423 ;;   _show_a->_tostring
   424 ;;   _init->_enable
   425 ;;   _tostring->___aldiv
   426 ;;   _enable->_delay
   427 ;;
   428 ;; Critical Paths under _ccp1 in BANK0
   429 ;;
   430 ;;   None.
   431 ;;
   432 ;; Critical Paths under _main in BANK1
   433 ;;
   434 ;;   None.
   435 ;;
   436 ;; Critical Paths under _ccp1 in BANK1
   437 ;;
   438 ;;   None.
   439 ;;
   440 ;; Critical Paths under _main in BANK3
   441 ;;
   442 ;;   None.
   443 ;;
   444 ;; Critical Paths under _ccp1 in BANK3
   445 ;;
   446 ;;   None.
   447 ;;
   448 ;; Critical Paths under _main in BANK2
   449 ;;
   450 ;;   None.
   451 ;;
   452 ;; Critical Paths under _ccp1 in BANK2
   453 ;;
   454 ;;   None.
   455                           
   456 ;;
   457 ;;Main: autosize = 0, tempsize = 0, incstack = 0, save=0
   458 ;;
   459                           
   460 ;;
   461 ;;Call Graph Tables:
   462 ;;
   463 ;; ---------------------------------------------------------------------------------
   464 ;; (Depth) Function   	        Calls       Base Space   Used Autos Params    Refs
   465 ;; ---------------------------------------------------------------------------------
   466 ;; (0) _main                                                 0     0      0    1537
   467 ;;                               _init
   468 ;;                               _show
   469 ;; ---------------------------------------------------------------------------------
   470 ;; (1) _show                                                 0     0      0    1370
   471 ;;                             _enable
   472 ;;                             _show_a
   473 ;; ---------------------------------------------------------------------------------
   474 ;; (2) _show_a                                               6     2      4    1271
   475 ;;                                             22 BANK0      6     2      4
   476 ;;                           _tostring
   477 ;;                             _enable
   478 ;; ---------------------------------------------------------------------------------
   479 ;; (1) _init                                                 0     0      0     167
   480 ;;                              _delay
   481 ;;                             _enable
   482 ;; ---------------------------------------------------------------------------------
   483 ;; (3) _tostring                                             7     3      4    1042
   484 ;;                                             15 BANK0      7     3      4
   485 ;;                            ___almod
   486 ;;                            ___aldiv
   487 ;; ---------------------------------------------------------------------------------
   488 ;; (3) _enable                                               2     0      2      99
   489 ;;                                              5 BANK0      2     0      2
   490 ;;                              _delay
   491 ;; ---------------------------------------------------------------------------------
   492 ;; (4) ___aldiv                                             15     7      8     445
   493 ;;                                              0 BANK0     15     7      8
   494 ;; ---------------------------------------------------------------------------------
   495 ;; (4) ___almod                                             11     3      8     433
   496 ;;                                              0 BANK0     11     3      8
   497 ;; ---------------------------------------------------------------------------------
   498 ;; (4) _delay                                                5     3      2      68
   499 ;;                                              0 BANK0      5     3      2
   500 ;; ---------------------------------------------------------------------------------
   501 ;; Estimated maximum stack depth 4
   502 ;; ---------------------------------------------------------------------------------
   503 ;; (Depth) Function   	        Calls       Base Space   Used Autos Params    Refs
   504 ;; ---------------------------------------------------------------------------------
   505 ;; (5) _ccp1                                                 5     5      0       0
   506 ;;                                              0 COMMON     5     5      0
   507 ;; ---------------------------------------------------------------------------------
   508 ;; Estimated maximum stack depth 5
   509 ;; ---------------------------------------------------------------------------------
   510                           
   511 ;; Call Graph Graphs:
   512                           
   513 ;; _main (ROOT)
   514 ;;   _init
   515 ;;     _delay
   516 ;;     _enable
   517 ;;       _delay
   518 ;;   _show
   519 ;;     _enable
   520 ;;       _delay
   521 ;;     _show_a
   522 ;;       _tostring
   523 ;;         ___almod
   524 ;;         ___aldiv
   525 ;;       _enable
   526 ;;         _delay
   527 ;;
   528 ;; _ccp1 (ROOT)
   529 ;;
   530                           
   531 ;; Address spaces:
   532                           
   533 ;;Name               Size   Autos  Total    Cost      Usage
   534 ;;BANK3               60      0       0       9        0.0%
   535 ;;BITBANK3            60      0       0       8        0.0%
   536 ;;SFR3                 0      0       0       4        0.0%
   537 ;;BITSFR3              0      0       0       4        0.0%
   538 ;;BANK2               60      0       0      11        0.0%
   539 ;;BITBANK2            60      0       0      10        0.0%
   540 ;;SFR2                 0      0       0       5        0.0%
   541 ;;BITSFR2              0      0       0       5        0.0%
   542 ;;SFR1                 0      0       0       2        0.0%
   543 ;;BITSFR1              0      0       0       2        0.0%
   544 ;;BANK1               50      0       0       7        0.0%
   545 ;;BITBANK1            50      0       0       6        0.0%
   546 ;;CODE                 0      0       0       0        0.0%
   547 ;;DATA                 0      0      46      12        0.0%
   548 ;;ABS                  0      0      42       3        0.0%
   549 ;;NULL                 0      0       0       0        0.0%
   550 ;;STACK                0      0       4       2        0.0%
   551 ;;BANK0               50     1C      38       5       70.0%
   552 ;;BITBANK0            50      0       0       4        0.0%
   553 ;;SFR0                 0      0       0       1        0.0%
   554 ;;BITSFR0              0      0       0       1        0.0%
   555 ;;COMMON               E      5       A       1       71.4%
   556 ;;BITCOMMON            E      0       1       0        7.1%
   557 ;;EEDATA             100      0       0       0        0.0%
   558                           
   559                           	global	_main
   560                           psect	maintext,global,class=CODE,delta=2
   561                           global __pmaintext
   562  0309                     __pmaintext:
   563                           
   564 ;; *************** function _main *****************
   565 ;; Defined at:
   566 ;;		line 97 in file "D:\EE\Mplabcode\Task_2\Transmitter.c"
   567 ;; Parameters:    Size  Location     Type
   568 ;;		None
   569 ;; Auto vars:     Size  Location     Type
   570 ;;		None
   571 ;; Return value:  Size  Location     Type
   572 ;;                  2  731[COMMON] int 
   573 ;; Registers used:
   574 ;;		wreg, fsr0l, fsr0h, status,2, status,0, btemp+1, pclath, cstack
   575 ;; Tracked objects:
   576 ;;		On entry : 17F/0
   577 ;;		On exit  : 0/0
   578 ;;		Unchanged: 0/0
   579 ;; Data sizes:     COMMON   BANK0   BANK1   BANK3   BANK2
   580 ;;      Params:         0       0       0       0       0
   581 ;;      Locals:         0       0       0       0       0
   582 ;;      Temps:          0       0       0       0       0
   583 ;;      Totals:         0       0       0       0       0
   584 ;;Total ram usage:        0 bytes
   585 ;; Hardware stack levels required when called:    5
   586 ;; This function calls:
   587 ;;		_init
   588 ;;		_show
   589 ;; This function is called by:
   590 ;;		Startup code after reset
   591 ;; This function uses a non-reentrant model
   592 ;;
   593                           psect	maintext
   594                           	file	"D:\EE\Mplabcode\Task_2\Transmitter.c"
   595                           	line	97
   596                           	global	__size_of_main
   597  001E                     	__size_of_main	equ	__end_of_main-_main
   598                           	
   599  0309                     _main:	
   600                           	opt	stack 3
   601                           ; Regs used in _main: [wreg-fsr0h+status,2+status,0+btemp+1+pclath+cstack]
   602                           	line	98
   603                           	
   604  0309                     l3302:	
   605                           ;Transmitter.c: 98: init ();
   606  0309  120A  118A  229E   	fcall	_init
              120A  118A         
   607                           	line	99
   608                           	
   609  030E                     l3304:	
   610                           ;Transmitter.c: 99: show();
   611  030E  120A  118A  2327   	fcall	_show
              120A  118A         
   612                           	line	100
   613                           	
   614  0313                     l3306:	
   615                           ;Transmitter.c: 100: TMR1ON=1;
   616  0313  1283               	bcf	status, 5	;RP0=0, select bank0
   617  0314  1303               	bcf	status, 6	;RP1=0, select bank0
   618  0315  1410               	bsf	(128/8),(128)&7
   619  0316  2B17               	goto	l3308
   620                           	line	101
   621                           ;Transmitter.c: 101: while(1){
   622                           	
   623  0317                     l732:	
   624                           	line	102
   625                           	
   626  0317                     l3308:	
   627                           ;Transmitter.c: 102: if(showflag){
   628  0317  1CF5               	btfss	(_showflag/8),(_showflag)&7
   629  0318  2B1A               	goto	u2991
   630  0319  2B1B               	goto	u2990
   631  031A                     u2991:
   632  031A  2B17               	goto	l3308
   633  031B                     u2990:
   634                           	line	103
   635                           	
   636  031B                     l3310:	
   637                           ;Transmitter.c: 103: showflag=0;
   638  031B  10F5               	bcf	(_showflag/8),(_showflag)&7
   639                           	line	104
   640                           	
   641  031C                     l3312:	
   642                           ;Transmitter.c: 104: show();
   643  031C  120A  118A  2327   	fcall	_show
              120A  118A         
   644  0321  2B17               	goto	l3308
   645                           	line	105
   646                           	
   647  0322                     l733:	
   648  0322  2B17               	goto	l3308
   649                           	line	106
   650                           	
   651  0323                     l734:	
   652                           	line	101
   653  0323  2B17               	goto	l3308
   654                           	
   655  0324                     l735:	
   656                           	line	107
   657                           	
   658  0324                     l736:	
   659                           	global	start
   660  0324  120A  118A  2812   	ljmp	start
   661                           	opt stack 0
   662                           GLOBAL	__end_of_main
   663  0327                     	__end_of_main:
   664 ;; =============== function _main ends ============
   665                           
   666                           	signat	_main,90
   667                           	global	_show
   668                           psect	text374,local,class=CODE,delta=2
   669                           global __ptext374
   670  0327                     __ptext374:
   671                           
   672 ;; *************** function _show *****************
   673 ;; Defined at:
   674 ;;		line 168 in file "D:\EE\Mplabcode\Task_2\Transmitter.c"
   675 ;; Parameters:    Size  Location     Type
   676 ;;		None
   677 ;; Auto vars:     Size  Location     Type
   678 ;;		None
   679 ;; Return value:  Size  Location     Type
   680 ;;		None               void
   681 ;; Registers used:
   682 ;;		wreg, fsr0l, fsr0h, status,2, status,0, btemp+1, pclath, cstack
   683 ;; Tracked objects:
   684 ;;		On entry : 0/0
   685 ;;		On exit  : 0/0
   686 ;;		Unchanged: 0/0
   687 ;; Data sizes:     COMMON   BANK0   BANK1   BANK3   BANK2
   688 ;;      Params:         0       0       0       0       0
   689 ;;      Locals:         0       0       0       0       0
   690 ;;      Temps:          0       0       0       0       0
   691 ;;      Totals:         0       0       0       0       0
   692 ;;Total ram usage:        0 bytes
   693 ;; Hardware stack levels used:    1
   694 ;; Hardware stack levels required when called:    4
   695 ;; This function calls:
   696 ;;		_enable
   697 ;;		_show_a
   698 ;; This function is called by:
   699 ;;		_main
   700 ;; This function uses a non-reentrant model
   701 ;;
   702                           psect	text374
   703                           	file	"D:\EE\Mplabcode\Task_2\Transmitter.c"
   704                           	line	168
   705                           	global	__size_of_show
   706  001D                     	__size_of_show	equ	__end_of_show-_show
   707                           	
   708  0327                     _show:	
   709                           	opt	stack 3
   710                           ; Regs used in _show: [wreg-fsr0h+status,2+status,0+btemp+1+pclath+cstack]
   711                           	line	169
   712                           	
   713  0327                     l3296:	
   714                           ;Transmitter.c: 169: PORTD=0x80;
   715  0327  3080               	movlw	(080h)
   716  0328  1283               	bcf	status, 5	;RP0=0, select bank0
   717  0329  1303               	bcf	status, 6	;RP1=0, select bank0
   718  032A  0088               	movwf	(8)	;volatile
   719                           	line	170
   720                           	
   721  032B                     l3298:	
   722                           ;Transmitter.c: 170: enable (INS);
   723  032B  3000               	movlw	low(0)
   724  032C  00A5               	movwf	(?_enable)
   725  032D  3000               	movlw	high(0)
   726  032E  00A6               	movwf	((?_enable))+1
   727  032F  120A  118A  2361   	fcall	_enable
              120A  118A         
   728                           	line	171
   729                           	
   730  0334                     l3300:	
   731                           ;Transmitter.c: 171: show_a(showdata.l);
   732  0334  1283               	bcf	status, 5	;RP0=0, select bank0
   733  0335  1303               	bcf	status, 6	;RP1=0, select bank0
   734  0336  0857               	movf	(_showdata+3),w
   735  0337  00B9               	movwf	(?_show_a+3)
   736  0338  0856               	movf	(_showdata+2),w
   737  0339  00B8               	movwf	(?_show_a+2)
   738  033A  0855               	movf	(_showdata+1),w
   739  033B  00B7               	movwf	(?_show_a+1)
   740  033C  0854               	movf	(_showdata),w
   741  033D  00B6               	movwf	(?_show_a)
   742                           
   743  033E  120A  118A  2254   	fcall	_show_a
              120A  118A         
   744                           	line	172
   745                           	
   746  0343                     l761:	
   747  0343  0008               	return
   748                           	opt stack 0
   749                           GLOBAL	__end_of_show
   750  0344                     	__end_of_show:
   751 ;; =============== function _show ends ============
   752                           
   753                           	signat	_show,88
   754                           	global	_show_a
   755                           psect	text375,local,class=CODE,delta=2
   756                           global __ptext375
   757  0254                     __ptext375:
   758                           
   759 ;; *************** function _show_a *****************
   760 ;; Defined at:
   761 ;;		line 160 in file "D:\EE\Mplabcode\Task_2\Transmitter.c"
   762 ;; Parameters:    Size  Location     Type
   763 ;;  x               4   22[BANK0 ] long 
   764 ;; Auto vars:     Size  Location     Type
   765 ;;  i               2   26[BANK0 ] int 
   766 ;; Return value:  Size  Location     Type
   767 ;;		None               void
   768 ;; Registers used:
   769 ;;		wreg, fsr0l, fsr0h, status,2, status,0, btemp+1, pclath, cstack
   770 ;; Tracked objects:
   771 ;;		On entry : 0/0
   772 ;;		On exit  : 0/0
   773 ;;		Unchanged: 0/0
   774 ;; Data sizes:     COMMON   BANK0   BANK1   BANK3   BANK2
   775 ;;      Params:         0       4       0       0       0
   776 ;;      Locals:         0       2       0       0       0
   777 ;;      Temps:          0       0       0       0       0
   778 ;;      Totals:         0       6       0       0       0
   779 ;;Total ram usage:        6 bytes
   780 ;; Hardware stack levels used:    1
   781 ;; Hardware stack levels required when called:    3
   782 ;; This function calls:
   783 ;;		_tostring
   784 ;;		_enable
   785 ;; This function is called by:
   786 ;;		_show
   787 ;; This function uses a non-reentrant model
   788 ;;
   789                           psect	text375
   790                           	file	"D:\EE\Mplabcode\Task_2\Transmitter.c"
   791                           	line	160
   792                           	global	__size_of_show_a
   793  004A                     	__size_of_show_a	equ	__end_of_show_a-_show_a
   794                           	
   795  0254                     _show_a:	
   796                           	opt	stack 3
   797                           ; Regs used in _show_a: [wreg-fsr0h+status,2+status,0+btemp+1+pclath+cstack]
   798                           	line	161
   799                           	
   800  0254                     l3280:	
   801                           ;Transmitter.c: 161: tostring(x);
   802  0254  1283               	bcf	status, 5	;RP0=0, select bank0
   803  0255  1303               	bcf	status, 6	;RP1=0, select bank0
   804  0256  0839               	movf	(show_a@x+3),w
   805  0257  00B2               	movwf	(?_tostring+3)
   806  0258  0838               	movf	(show_a@x+2),w
   807  0259  00B1               	movwf	(?_tostring+2)
   808  025A  0837               	movf	(show_a@x+1),w
   809  025B  00B0               	movwf	(?_tostring+1)
   810  025C  0836               	movf	(show_a@x),w
   811  025D  00AF               	movwf	(?_tostring)
   812                           
   813  025E  120A  118A  21FD   	fcall	_tostring
              120A  118A         
   814                           	line	162
   815                           	
   816  0263                     l3282:	
   817                           ;Transmitter.c: 162: for(int i=0;i<=6;++i){
   818  0263  1283               	bcf	status, 5	;RP0=0, select bank0
   819  0264  1303               	bcf	status, 6	;RP1=0, select bank0
   820  0265  01BA               	clrf	(show_a@i)
   821  0266  01BB               	clrf	(show_a@i+1)
   822                           	
   823  0267                     l3284:	
   824  0267  083B               	movf	(show_a@i+1),w
   825  0268  3A80               	xorlw	80h
   826  0269  00FF               	movwf	btemp+1
   827  026A  3080               	movlw	(high(07h))^80h
   828  026B  027F               	subwf	btemp+1,w
   829  026C  1D03               	skipz
   830  026D  2A70               	goto	u2975
   831  026E  3007               	movlw	low(07h)
   832  026F  023A               	subwf	(show_a@i),w
   833  0270                     u2975:
   834                           
   835  0270  1C03               	skipc
   836  0271  2A73               	goto	u2971
   837  0272  2A74               	goto	u2970
   838  0273                     u2971:
   839  0273  2A76               	goto	l3288
   840  0274                     u2970:
   841  0274  2A9D               	goto	l758
   842                           	
   843  0275                     l3286:	
   844  0275  2A9D               	goto	l758
   845                           	
   846  0276                     l756:	
   847                           	line	163
   848                           	
   849  0276                     l3288:	
   850                           ;Transmitter.c: 163: PORTD=s[i];
   851  0276  1283               	bcf	status, 5	;RP0=0, select bank0
   852  0277  1303               	bcf	status, 6	;RP1=0, select bank0
   853  0278  083A               	movf	(show_a@i),w
   854  0279  3E3C               	addlw	_s&0ffh
   855  027A  0084               	movwf	fsr0
   856  027B  1383               	bcf	status, 7	;select IRP bank0
   857  027C  0800               	movf	indf,w
   858  027D  0088               	movwf	(8)	;volatile
   859                           	line	164
   860                           	
   861  027E                     l3290:	
   862                           ;Transmitter.c: 164: enable(DATA);
   863  027E  3001               	movlw	low(01h)
   864  027F  00A5               	movwf	(?_enable)
   865  0280  3000               	movlw	high(01h)
   866  0281  00A6               	movwf	((?_enable))+1
   867  0282  120A  118A  2361   	fcall	_enable
              120A  118A         
   868                           	line	162
   869                           	
   870  0287                     l3292:	
   871  0287  3001               	movlw	low(01h)
   872  0288  1283               	bcf	status, 5	;RP0=0, select bank0
   873  0289  1303               	bcf	status, 6	;RP1=0, select bank0
   874  028A  07BA               	addwf	(show_a@i),f
   875  028B  1803               	skipnc
   876  028C  0ABB               	incf	(show_a@i+1),f
   877  028D  3000               	movlw	high(01h)
   878  028E  07BB               	addwf	(show_a@i+1),f
   879                           	
   880  028F                     l3294:	
   881  028F  083B               	movf	(show_a@i+1),w
   882  0290  3A80               	xorlw	80h
   883  0291  00FF               	movwf	btemp+1
   884  0292  3080               	movlw	(high(07h))^80h
   885  0293  027F               	subwf	btemp+1,w
   886  0294  1D03               	skipz
   887  0295  2A98               	goto	u2985
   888  0296  3007               	movlw	low(07h)
   889  0297  023A               	subwf	(show_a@i),w
   890  0298                     u2985:
   891                           
   892  0298  1C03               	skipc
   893  0299  2A9B               	goto	u2981
   894  029A  2A9C               	goto	u2980
   895  029B                     u2981:
   896  029B  2A76               	goto	l3288
   897  029C                     u2980:
   898  029C  2A9D               	goto	l758
   899                           	
   900  029D                     l757:	
   901                           	line	166
   902                           	
   903  029D                     l758:	
   904  029D  0008               	return
   905                           	opt stack 0
   906                           GLOBAL	__end_of_show_a
   907  029E                     	__end_of_show_a:
   908 ;; =============== function _show_a ends ============
   909                           
   910                           	signat	_show_a,4216
   911                           	global	_init
   912                           psect	text376,local,class=CODE,delta=2
   913                           global __ptext376
   914  029E                     __ptext376:
   915                           
   916 ;; *************** function _init *****************
   917 ;; Defined at:
   918 ;;		line 110 in file "D:\EE\Mplabcode\Task_2\Transmitter.c"
   919 ;; Parameters:    Size  Location     Type
   920 ;;		None
   921 ;; Auto vars:     Size  Location     Type
   922 ;;		None
   923 ;; Return value:  Size  Location     Type
   924 ;;		None               void
   925 ;; Registers used:
   926 ;;		wreg, status,2, status,0, pclath, cstack
   927 ;; Tracked objects:
   928 ;;		On entry : 0/0
   929 ;;		On exit  : 0/0
   930 ;;		Unchanged: 0/0
   931 ;; Data sizes:     COMMON   BANK0   BANK1   BANK3   BANK2
   932 ;;      Params:         0       0       0       0       0
   933 ;;      Locals:         0       0       0       0       0
   934 ;;      Temps:          0       0       0       0       0
   935 ;;      Totals:         0       0       0       0       0
   936 ;;Total ram usage:        0 bytes
   937 ;; Hardware stack levels used:    1
   938 ;; Hardware stack levels required when called:    3
   939 ;; This function calls:
   940 ;;		_delay
   941 ;;		_enable
   942 ;; This function is called by:
   943 ;;		_main
   944 ;; This function uses a non-reentrant model
   945 ;;
   946                           psect	text376
   947                           	file	"D:\EE\Mplabcode\Task_2\Transmitter.c"
   948                           	line	110
   949                           	global	__size_of_init
   950  0047                     	__size_of_init	equ	__end_of_init-_init
   951                           	
   952  029E                     _init:	
   953                           	opt	stack 4
   954                           ; Regs used in _init: [wreg+status,2+status,0+pclath+cstack]
   955                           	line	111
   956                           	
   957  029E                     l3234:	
   958                           ;Transmitter.c: 111: TRISD=0;
   959  029E  1683               	bsf	status, 5	;RP0=1, select bank1
   960  029F  1303               	bcf	status, 6	;RP1=0, select bank1
   961  02A0  0188               	clrf	(136)^080h	;volatile
   962                           	line	112
   963                           ;Transmitter.c: 112: TRISA=0;
   964  02A1  0185               	clrf	(133)^080h	;volatile
   965                           	line	113
   966                           	
   967  02A2                     l3236:	
   968                           ;Transmitter.c: 113: TRISC2=1;
   969  02A2  1507               	bsf	(1082/8)^080h,(1082)&7
   970                           	line	114
   971                           	
   972  02A3                     l3238:	
   973                           ;Transmitter.c: 114: TRISC7=0;
   974  02A3  1387               	bcf	(1087/8)^080h,(1087)&7
   975                           	line	115
   976                           	
   977  02A4                     l3240:	
   978                           ;Transmitter.c: 115: TRISC4=0;
   979  02A4  1207               	bcf	(1084/8)^080h,(1084)&7
   980                           	line	116
   981                           ;Transmitter.c: 116: TRISB=0x0;
   982  02A5  0186               	clrf	(134)^080h	;volatile
   983                           	line	117
   984                           	
   985  02A6                     l3242:	
   986                           ;Transmitter.c: 117: ADCON1=7;
   987  02A6  3007               	movlw	(07h)
   988  02A7  009F               	movwf	(159)^080h	;volatile
   989                           	line	119
   990                           	
   991  02A8                     l3244:	
   992                           ;Transmitter.c: 119: PORTD=0;
   993  02A8  1283               	bcf	status, 5	;RP0=0, select bank0
   994  02A9  1303               	bcf	status, 6	;RP1=0, select bank0
   995  02AA  0188               	clrf	(8)	;volatile
   996                           	line	120
   997                           	
   998  02AB                     l3246:	
   999                           ;Transmitter.c: 120: RC7=0;
  1000  02AB  1387               	bcf	(63/8),(63)&7
  1001                           	line	121
  1002                           	
  1003  02AC                     l3248:	
  1004                           ;Transmitter.c: 121: RA3=1;
  1005  02AC  1585               	bsf	(43/8),(43)&7
  1006                           	line	123
  1007                           	
  1008  02AD                     l3250:	
  1009                           ;Transmitter.c: 123: delay(1000);
  1010  02AD  30E8               	movlw	low(03E8h)
  1011  02AE  00A0               	movwf	(?_delay)
  1012  02AF  3003               	movlw	high(03E8h)
  1013  02B0  00A1               	movwf	((?_delay))+1
  1014  02B1  120A  118A  2344   	fcall	_delay
              120A  118A         
  1015                           	line	124
  1016                           	
  1017  02B6                     l3252:	
  1018                           ;Transmitter.c: 124: PORTD=0x38;enable (INS);
  1019  02B6  3038               	movlw	(038h)
  1020  02B7  1283               	bcf	status, 5	;RP0=0, select bank0
  1021  02B8  1303               	bcf	status, 6	;RP1=0, select bank0
  1022  02B9  0088               	movwf	(8)	;volatile
  1023  02BA  3000               	movlw	low(0)
  1024  02BB  00A5               	movwf	(?_enable)
  1025  02BC  3000               	movlw	high(0)
  1026  02BD  00A6               	movwf	((?_enable))+1
  1027  02BE  120A  118A  2361   	fcall	_enable
              120A  118A         
  1028                           	line	125
  1029                           	
  1030  02C3                     l3254:	
  1031                           ;Transmitter.c: 125: PORTD=0x0c;enable (INS);
  1032  02C3  300C               	movlw	(0Ch)
  1033  02C4  1283               	bcf	status, 5	;RP0=0, select bank0
  1034  02C5  1303               	bcf	status, 6	;RP1=0, select bank0
  1035  02C6  0088               	movwf	(8)	;volatile
  1036                           	
  1037  02C7                     l3256:	
  1038  02C7  3000               	movlw	low(0)
  1039  02C8  00A5               	movwf	(?_enable)
  1040  02C9  3000               	movlw	high(0)
  1041  02CA  00A6               	movwf	((?_enable))+1
  1042  02CB  120A  118A  2361   	fcall	_enable
              120A  118A         
  1043                           	line	127
  1044                           	
  1045  02D0                     l3258:	
  1046                           ;Transmitter.c: 127: tsmflag=0;
  1047  02D0  1175               	bcf	(_tsmflag/8),(_tsmflag)&7
  1048                           	line	128
  1049                           	
  1050  02D1                     l3260:	
  1051                           ;Transmitter.c: 128: showflag=0;
  1052  02D1  10F5               	bcf	(_showflag/8),(_showflag)&7
  1053                           	line	129
  1054                           	
  1055  02D2                     l3262:	
  1056                           ;Transmitter.c: 129: hflag=0;
  1057  02D2  1075               	bcf	(_hflag/8),(_hflag)&7
  1058                           	line	131
  1059                           	
  1060  02D3                     l3264:	
  1061                           ;Transmitter.c: 131: GIE=1; PEIE=1;CCP1IE=1;CCP1IF=0;
  1062  02D3  178B               	bsf	(95/8),(95)&7
  1063                           	
  1064  02D4                     l3266:	
  1065  02D4  170B               	bsf	(94/8),(94)&7
  1066                           	
  1067  02D5                     l3268:	
  1068  02D5  1683               	bsf	status, 5	;RP0=1, select bank1
  1069  02D6  1303               	bcf	status, 6	;RP1=0, select bank1
  1070  02D7  150C               	bsf	(1122/8)^080h,(1122)&7
  1071                           	
  1072  02D8                     l3270:	
  1073  02D8  1283               	bcf	status, 5	;RP0=0, select bank0
  1074  02D9  1303               	bcf	status, 6	;RP1=0, select bank0
  1075  02DA  110C               	bcf	(98/8),(98)&7
  1076                           	line	132
  1077                           	
  1078  02DB                     l3272:	
  1079                           ;Transmitter.c: 132: TMR1IE=1;TMR1IF=0;
  1080  02DB  1683               	bsf	status, 5	;RP0=1, select bank1
  1081  02DC  1303               	bcf	status, 6	;RP1=0, select bank1
  1082  02DD  140C               	bsf	(1120/8)^080h,(1120)&7
  1083                           	
  1084  02DE                     l3274:	
  1085  02DE  1283               	bcf	status, 5	;RP0=0, select bank0
  1086  02DF  1303               	bcf	status, 6	;RP1=0, select bank0
  1087  02E0  100C               	bcf	(96/8),(96)&7
  1088                           	line	133
  1089                           	
  1090  02E1                     l3276:	
  1091                           ;Transmitter.c: 133: T1CON=0B00000000;
  1092  02E1  0190               	clrf	(16)	;volatile
  1093                           	line	134
  1094                           	
  1095  02E2                     l3278:	
  1096                           ;Transmitter.c: 134: CCP1CON=5;
  1097  02E2  3005               	movlw	(05h)
  1098  02E3  0097               	movwf	(23)	;volatile
  1099                           	line	135
  1100                           	
  1101  02E4                     l739:	
  1102  02E4  0008               	return
  1103                           	opt stack 0
  1104                           GLOBAL	__end_of_init
  1105  02E5                     	__end_of_init:
  1106 ;; =============== function _init ends ============
  1107                           
  1108                           	signat	_init,88
  1109                           	global	_tostring
  1110                           psect	text377,local,class=CODE,delta=2
  1111                           global __ptext377
  1112  01FD                     __ptext377:
  1113                           
  1114 ;; *************** function _tostring *****************
  1115 ;; Defined at:
  1116 ;;		line 152 in file "D:\EE\Mplabcode\Task_2\Transmitter.c"
  1117 ;; Parameters:    Size  Location     Type
  1118 ;;  x               4   15[BANK0 ] long 
  1119 ;; Auto vars:     Size  Location     Type
  1120 ;;  i               2   20[BANK0 ] int 
  1121 ;; Return value:  Size  Location     Type
  1122 ;;		None               void
  1123 ;; Registers used:
  1124 ;;		wreg, fsr0l, fsr0h, status,2, status,0, pclath, cstack
  1125 ;; Tracked objects:
  1126 ;;		On entry : 0/0
  1127 ;;		On exit  : 0/0
  1128 ;;		Unchanged: 0/0
  1129 ;; Data sizes:     COMMON   BANK0   BANK1   BANK3   BANK2
  1130 ;;      Params:         0       4       0       0       0
  1131 ;;      Locals:         0       2       0       0       0
  1132 ;;      Temps:          0       1       0       0       0
  1133 ;;      Totals:         0       7       0       0       0
  1134 ;;Total ram usage:        7 bytes
  1135 ;; Hardware stack levels used:    1
  1136 ;; Hardware stack levels required when called:    2
  1137 ;; This function calls:
  1138 ;;		___almod
  1139 ;;		___aldiv
  1140 ;; This function is called by:
  1141 ;;		_show_a
  1142 ;; This function uses a non-reentrant model
  1143 ;;
  1144                           psect	text377
  1145                           	file	"D:\EE\Mplabcode\Task_2\Transmitter.c"
  1146                           	line	152
  1147                           	global	__size_of_tostring
  1148  0057                     	__size_of_tostring	equ	__end_of_tostring-_tostring
  1149                           	
  1150  01FD                     _tostring:	
  1151                           	opt	stack 3
  1152                           ; Regs used in _tostring: [wreg-fsr0h+status,2+status,0+pclath+cstack]
  1153                           	line	153
  1154                           	
  1155  01FD                     l3220:	
  1156                           ;Transmitter.c: 153: for(int i=6;i>=0;--i){
  1157  01FD  3006               	movlw	low(06h)
  1158  01FE  1283               	bcf	status, 5	;RP0=0, select bank0
  1159  01FF  1303               	bcf	status, 6	;RP1=0, select bank0
  1160  0200  00B4               	movwf	(tostring@i)
  1161  0201  3000               	movlw	high(06h)
  1162  0202  00B5               	movwf	((tostring@i))+1
  1163                           	
  1164  0203                     l3222:	
  1165  0203  1FB5               	btfss	(tostring@i+1),7
  1166  0204  2A06               	goto	u2951
  1167  0205  2A07               	goto	u2950
  1168  0206                     u2951:
  1169  0206  2A09               	goto	l3226
  1170  0207                     u2950:
  1171  0207  2A53               	goto	l753
  1172                           	
  1173  0208                     l3224:	
  1174  0208  2A53               	goto	l753
  1175                           	
  1176  0209                     l751:	
  1177                           	line	154
  1178                           	
  1179  0209                     l3226:	
  1180                           ;Transmitter.c: 154: s[i]=x%10+'0';
  1181  0209  3000               	movlw	0
  1182  020A  00A3               	movwf	(?___almod+3)
  1183  020B  3000               	movlw	0
  1184  020C  00A2               	movwf	(?___almod+2)
  1185  020D  3000               	movlw	0
  1186  020E  00A1               	movwf	(?___almod+1)
  1187  020F  300A               	movlw	0Ah
  1188  0210  00A0               	movwf	(?___almod)
  1189                           
  1190  0211  0832               	movf	(tostring@x+3),w
  1191  0212  00A7               	movwf	3+(?___almod)+04h
  1192  0213  0831               	movf	(tostring@x+2),w
  1193  0214  00A6               	movwf	2+(?___almod)+04h
  1194  0215  0830               	movf	(tostring@x+1),w
  1195  0216  00A5               	movwf	1+(?___almod)+04h
  1196  0217  082F               	movf	(tostring@x),w
  1197  0218  00A4               	movwf	0+(?___almod)+04h
  1198                           
  1199  0219  120A  118A  216B   	fcall	___almod
              120A  118A         
  1200  021E  1283               	bcf	status, 5	;RP0=0, select bank0
  1201  021F  1303               	bcf	status, 6	;RP1=0, select bank0
  1202  0220  0820               	movf	0+(((0+(?___almod)))),w
  1203  0221  3E30               	addlw	030h
  1204  0222  00B3               	movwf	(??_tostring+0)+0
  1205  0223  0834               	movf	(tostring@i),w
  1206  0224  3E3C               	addlw	_s&0ffh
  1207  0225  0084               	movwf	fsr0
  1208  0226  0833               	movf	(??_tostring+0)+0,w
  1209  0227  1383               	bcf	status, 7	;select IRP bank0
  1210  0228  0080               	movwf	indf
  1211                           	line	155
  1212                           	
  1213  0229                     l3228:	
  1214                           ;Transmitter.c: 155: x/=10;
  1215  0229  3000               	movlw	0
  1216  022A  00A3               	movwf	(?___aldiv+3)
  1217  022B  3000               	movlw	0
  1218  022C  00A2               	movwf	(?___aldiv+2)
  1219  022D  3000               	movlw	0
  1220  022E  00A1               	movwf	(?___aldiv+1)
  1221  022F  300A               	movlw	0Ah
  1222  0230  00A0               	movwf	(?___aldiv)
  1223                           
  1224  0231  0832               	movf	(tostring@x+3),w
  1225  0232  00A7               	movwf	3+(?___aldiv)+04h
  1226  0233  0831               	movf	(tostring@x+2),w
  1227  0234  00A6               	movwf	2+(?___aldiv)+04h
  1228  0235  0830               	movf	(tostring@x+1),w
  1229  0236  00A5               	movwf	1+(?___aldiv)+04h
  1230  0237  082F               	movf	(tostring@x),w
  1231  0238  00A4               	movwf	0+(?___aldiv)+04h
  1232                           
  1233  0239  120A  118A  20C3   	fcall	___aldiv
              120A  118A         
  1234  023E  1283               	bcf	status, 5	;RP0=0, select bank0
  1235  023F  1303               	bcf	status, 6	;RP1=0, select bank0
  1236  0240  0823               	movf	(3+(?___aldiv)),w
  1237  0241  00B2               	movwf	(tostring@x+3)
  1238  0242  0822               	movf	(2+(?___aldiv)),w
  1239  0243  00B1               	movwf	(tostring@x+2)
  1240  0244  0821               	movf	(1+(?___aldiv)),w
  1241  0245  00B0               	movwf	(tostring@x+1)
  1242  0246  0820               	movf	(0+(?___aldiv)),w
  1243  0247  00AF               	movwf	(tostring@x)
  1244                           
  1245                           	line	153
  1246                           	
  1247  0248                     l3230:	
  1248  0248  30FF               	movlw	low(-1)
  1249  0249  07B4               	addwf	(tostring@i),f
  1250  024A  1803               	skipnc
  1251  024B  0AB5               	incf	(tostring@i+1),f
  1252  024C  30FF               	movlw	high(-1)
  1253  024D  07B5               	addwf	(tostring@i+1),f
  1254                           	
  1255  024E                     l3232:	
  1256  024E  1FB5               	btfss	(tostring@i+1),7
  1257  024F  2A51               	goto	u2961
  1258  0250  2A52               	goto	u2960
  1259  0251                     u2961:
  1260  0251  2A09               	goto	l3226
  1261  0252                     u2960:
  1262  0252  2A53               	goto	l753
  1263                           	
  1264  0253                     l752:	
  1265                           	line	157
  1266                           	
  1267  0253                     l753:	
  1268  0253  0008               	return
  1269                           	opt stack 0
  1270                           GLOBAL	__end_of_tostring
  1271  0254                     	__end_of_tostring:
  1272 ;; =============== function _tostring ends ============
  1273                           
  1274                           	signat	_tostring,4216
  1275                           	global	_enable
  1276                           psect	text378,local,class=CODE,delta=2
  1277                           global __ptext378
  1278  0361                     __ptext378:
  1279                           
  1280 ;; *************** function _enable *****************
  1281 ;; Defined at:
  1282 ;;		line 144 in file "D:\EE\Mplabcode\Task_2\Transmitter.c"
  1283 ;; Parameters:    Size  Location     Type
  1284 ;;  t               2    5[BANK0 ] int 
  1285 ;; Auto vars:     Size  Location     Type
  1286 ;;		None
  1287 ;; Return value:  Size  Location     Type
  1288 ;;		None               void
  1289 ;; Registers used:
  1290 ;;		wreg, status,2, status,0, pclath, cstack
  1291 ;; Tracked objects:
  1292 ;;		On entry : 0/0
  1293 ;;		On exit  : 0/0
  1294 ;;		Unchanged: 0/0
  1295 ;; Data sizes:     COMMON   BANK0   BANK1   BANK3   BANK2
  1296 ;;      Params:         0       2       0       0       0
  1297 ;;      Locals:         0       0       0       0       0
  1298 ;;      Temps:          0       0       0       0       0
  1299 ;;      Totals:         0       2       0       0       0
  1300 ;;Total ram usage:        2 bytes
  1301 ;; Hardware stack levels used:    1
  1302 ;; Hardware stack levels required when called:    2
  1303 ;; This function calls:
  1304 ;;		_delay
  1305 ;; This function is called by:
  1306 ;;		_init
  1307 ;;		_show_a
  1308 ;;		_show
  1309 ;; This function uses a non-reentrant model
  1310 ;;
  1311                           psect	text378
  1312                           	file	"D:\EE\Mplabcode\Task_2\Transmitter.c"
  1313                           	line	144
  1314                           	global	__size_of_enable
  1315  001B                     	__size_of_enable	equ	__end_of_enable-_enable
  1316                           	
  1317  0361                     _enable:	
  1318                           	opt	stack 3
  1319                           ; Regs used in _enable: [wreg+status,2+status,0+pclath+cstack]
  1320                           	line	145
  1321                           	
  1322  0361                     l3214:	
  1323                           ;Transmitter.c: 145: RA5=t;
  1324  0361  1283               	bcf	status, 5	;RP0=0, select bank0
  1325  0362  1303               	bcf	status, 6	;RP1=0, select bank0
  1326  0363  1825               	btfsc	(enable@t),0
  1327  0364  2B66               	goto	u2931
  1328  0365  2B6A               	goto	u2930
  1329                           	
  1330  0366                     u2931:
  1331  0366  1283               	bcf	status, 5	;RP0=0, select bank0
  1332  0367  1303               	bcf	status, 6	;RP1=0, select bank0
  1333  0368  1685               	bsf	(45/8),(45)&7
  1334  0369  2B6D               	goto	u2944
  1335  036A                     u2930:
  1336  036A  1283               	bcf	status, 5	;RP0=0, select bank0
  1337  036B  1303               	bcf	status, 6	;RP1=0, select bank0
  1338  036C  1285               	bcf	(45/8),(45)&7
  1339  036D                     u2944:
  1340                           	line	146
  1341                           ;Transmitter.c: 146: RA4=0;
  1342  036D  1205               	bcf	(44/8),(44)&7
  1343                           	line	147
  1344                           ;Transmitter.c: 147: RA3=0;
  1345  036E  1185               	bcf	(43/8),(43)&7
  1346                           	line	148
  1347                           	
  1348  036F                     l3216:	
  1349                           ;Transmitter.c: 148: delay(30);
  1350  036F  301E               	movlw	low(01Eh)
  1351  0370  00A0               	movwf	(?_delay)
  1352  0371  3000               	movlw	high(01Eh)
  1353  0372  00A1               	movwf	((?_delay))+1
  1354  0373  120A  118A  2344   	fcall	_delay
              120A  118A         
  1355                           	line	149
  1356                           	
  1357  0378                     l3218:	
  1358                           ;Transmitter.c: 149: RA3=1;
  1359  0378  1283               	bcf	status, 5	;RP0=0, select bank0
  1360  0379  1303               	bcf	status, 6	;RP1=0, select bank0
  1361  037A  1585               	bsf	(43/8),(43)&7
  1362                           	line	150
  1363                           	
  1364  037B                     l748:	
  1365  037B  0008               	return
  1366                           	opt stack 0
  1367                           GLOBAL	__end_of_enable
  1368  037C                     	__end_of_enable:
  1369 ;; =============== function _enable ends ============
  1370                           
  1371                           	signat	_enable,4216
  1372                           	global	___aldiv
  1373                           psect	text379,local,class=CODE,delta=2
  1374                           global __ptext379
  1375  00C3                     __ptext379:
  1376                           
  1377 ;; *************** function ___aldiv *****************
  1378 ;; Defined at:
  1379 ;;		line 5 in file "C:\Program Files (x86)\HI-TECH Software\PICC\9.82\sources\aldiv.c"
  1380 ;; Parameters:    Size  Location     Type
  1381 ;;  divisor         4    0[BANK0 ] long 
  1382 ;;  dividend        4    4[BANK0 ] long 
  1383 ;; Auto vars:     Size  Location     Type
  1384 ;;  quotient        4   11[BANK0 ] long 
  1385 ;;  sign            1   10[BANK0 ] unsigned char 
  1386 ;;  counter         1    9[BANK0 ] unsigned char 
  1387 ;; Return value:  Size  Location     Type
  1388 ;;                  4    0[BANK0 ] long 
  1389 ;; Registers used:
  1390 ;;		wreg, status,2, status,0
  1391 ;; Tracked objects:
  1392 ;;		On entry : 0/0
  1393 ;;		On exit  : 0/0
  1394 ;;		Unchanged: 0/0
  1395 ;; Data sizes:     COMMON   BANK0   BANK1   BANK3   BANK2
  1396 ;;      Params:         0       8       0       0       0
  1397 ;;      Locals:         0       6       0       0       0
  1398 ;;      Temps:          0       1       0       0       0
  1399 ;;      Totals:         0      15       0       0       0
  1400 ;;Total ram usage:       15 bytes
  1401 ;; Hardware stack levels used:    1
  1402 ;; Hardware stack levels required when called:    1
  1403 ;; This function calls:
  1404 ;;		Nothing
  1405 ;; This function is called by:
  1406 ;;		_tostring
  1407 ;; This function uses a non-reentrant model
  1408 ;;
  1409                           psect	text379
  1410                           	file	"C:\Program Files (x86)\HI-TECH Software\PICC\9.82\sources\aldiv.c"
  1411                           	line	5
  1412                           	global	__size_of___aldiv
  1413  00A8                     	__size_of___aldiv	equ	__end_of___aldiv-___aldiv
  1414                           	
  1415  00C3                     ___aldiv:	
  1416                           	opt	stack 3
  1417                           ; Regs used in ___aldiv: [wreg+status,2+status,0]
  1418                           	line	9
  1419                           	
  1420  00C3                     l3172:	
  1421  00C3  1283               	bcf	status, 5	;RP0=0, select bank0
  1422  00C4  1303               	bcf	status, 6	;RP1=0, select bank0
  1423  00C5  01AA               	clrf	(___aldiv@sign)
  1424                           	line	10
  1425  00C6  1FA3               	btfss	(___aldiv@divisor+3),7
  1426  00C7  28C9               	goto	u2831
  1427  00C8  28CA               	goto	u2830
  1428  00C9                     u2831:
  1429  00C9  28D9               	goto	l3178
  1430  00CA                     u2830:
  1431                           	line	11
  1432                           	
  1433  00CA                     l3174:	
  1434  00CA  09A0               	comf	(___aldiv@divisor),f
  1435  00CB  09A1               	comf	(___aldiv@divisor+1),f
  1436  00CC  09A2               	comf	(___aldiv@divisor+2),f
  1437  00CD  09A3               	comf	(___aldiv@divisor+3),f
  1438  00CE  0AA0               	incf	(___aldiv@divisor),f
  1439  00CF  1903               	skipnz
  1440  00D0  0AA1               	incf	(___aldiv@divisor+1),f
  1441  00D1  1903               	skipnz
  1442  00D2  0AA2               	incf	(___aldiv@divisor+2),f
  1443  00D3  1903               	skipnz
  1444  00D4  0AA3               	incf	(___aldiv@divisor+3),f
  1445                           	line	12
  1446                           	
  1447  00D5                     l3176:	
  1448  00D5  01AA               	clrf	(___aldiv@sign)
  1449  00D6  1403               	bsf	status,0
  1450  00D7  0DAA               	rlf	(___aldiv@sign),f
  1451  00D8  28D9               	goto	l3178
  1452                           	line	13
  1453                           	
  1454  00D9                     l1639:	
  1455                           	line	14
  1456                           	
  1457  00D9                     l3178:	
  1458  00D9  1FA7               	btfss	(___aldiv@dividend+3),7
  1459  00DA  28DC               	goto	u2841
  1460  00DB  28DD               	goto	u2840
  1461  00DC                     u2841:
  1462  00DC  28ED               	goto	l3184
  1463  00DD                     u2840:
  1464                           	line	15
  1465                           	
  1466  00DD                     l3180:	
  1467  00DD  09A4               	comf	(___aldiv@dividend),f
  1468  00DE  09A5               	comf	(___aldiv@dividend+1),f
  1469  00DF  09A6               	comf	(___aldiv@dividend+2),f
  1470  00E0  09A7               	comf	(___aldiv@dividend+3),f
  1471  00E1  0AA4               	incf	(___aldiv@dividend),f
  1472  00E2  1903               	skipnz
  1473  00E3  0AA5               	incf	(___aldiv@dividend+1),f
  1474  00E4  1903               	skipnz
  1475  00E5  0AA6               	incf	(___aldiv@dividend+2),f
  1476  00E6  1903               	skipnz
  1477  00E7  0AA7               	incf	(___aldiv@dividend+3),f
  1478                           	line	16
  1479                           	
  1480  00E8                     l3182:	
  1481  00E8  3001               	movlw	(01h)
  1482  00E9  00A8               	movwf	(??___aldiv+0)+0
  1483  00EA  0828               	movf	(??___aldiv+0)+0,w
  1484  00EB  06AA               	xorwf	(___aldiv@sign),f
  1485  00EC  28ED               	goto	l3184
  1486                           	line	17
  1487                           	
  1488  00ED                     l1640:	
  1489                           	line	18
  1490                           	
  1491  00ED                     l3184:	
  1492  00ED  3000               	movlw	0
  1493  00EE  00AE               	movwf	(___aldiv@quotient+3)
  1494  00EF  3000               	movlw	0
  1495  00F0  00AD               	movwf	(___aldiv@quotient+2)
  1496  00F1  3000               	movlw	0
  1497  00F2  00AC               	movwf	(___aldiv@quotient+1)
  1498  00F3  3000               	movlw	0
  1499  00F4  00AB               	movwf	(___aldiv@quotient)
  1500                           
  1501                           	line	19
  1502                           	
  1503  00F5                     l3186:	
  1504  00F5  0823               	movf	(___aldiv@divisor+3),w
  1505  00F6  0422               	iorwf	(___aldiv@divisor+2),w
  1506  00F7  0421               	iorwf	(___aldiv@divisor+1),w
  1507  00F8  0420               	iorwf	(___aldiv@divisor),w
  1508  00F9  1903               	skipnz
  1509  00FA  28FC               	goto	u2851
  1510  00FB  28FD               	goto	u2850
  1511  00FC                     u2851:
  1512  00FC  2951               	goto	l3206
  1513  00FD                     u2850:
  1514                           	line	20
  1515                           	
  1516  00FD                     l3188:	
  1517  00FD  01A9               	clrf	(___aldiv@counter)
  1518  00FE  1403               	bsf	status,0
  1519  00FF  0DA9               	rlf	(___aldiv@counter),f
  1520                           	line	21
  1521  0100  290F               	goto	l3192
  1522                           	
  1523  0101                     l1643:	
  1524                           	line	22
  1525                           	
  1526  0101                     l3190:	
  1527  0101  3001               	movlw	01h
  1528  0102  00A8               	movwf	(??___aldiv+0)+0
  1529  0103                     u2865:
  1530  0103  1003               	clrc
  1531  0104  0DA0               	rlf	(___aldiv@divisor),f
  1532  0105  0DA1               	rlf	(___aldiv@divisor+1),f
  1533  0106  0DA2               	rlf	(___aldiv@divisor+2),f
  1534  0107  0DA3               	rlf	(___aldiv@divisor+3),f
  1535  0108  0BA8               	decfsz	(??___aldiv+0)+0
  1536  0109  2903               	goto	u2865
  1537                           	line	23
  1538  010A  3001               	movlw	(01h)
  1539  010B  00A8               	movwf	(??___aldiv+0)+0
  1540  010C  0828               	movf	(??___aldiv+0)+0,w
  1541  010D  07A9               	addwf	(___aldiv@counter),f
  1542  010E  290F               	goto	l3192
  1543                           	line	24
  1544                           	
  1545  010F                     l1642:	
  1546                           	line	21
  1547                           	
  1548  010F                     l3192:	
  1549  010F  1FA3               	btfss	(___aldiv@divisor+3),(31)&7
  1550  0110  2912               	goto	u2871
  1551  0111  2913               	goto	u2870
  1552  0112                     u2871:
  1553  0112  2901               	goto	l3190
  1554  0113                     u2870:
  1555  0113  2915               	goto	l3194
  1556                           	
  1557  0114                     l1644:	
  1558  0114  2915               	goto	l3194
  1559                           	line	25
  1560                           	
  1561  0115                     l1645:	
  1562                           	line	26
  1563                           	
  1564  0115                     l3194:	
  1565  0115  3001               	movlw	01h
  1566  0116  00A8               	movwf	(??___aldiv+0)+0
  1567  0117                     u2885:
  1568  0117  1003               	clrc
  1569  0118  0DAB               	rlf	(___aldiv@quotient),f
  1570  0119  0DAC               	rlf	(___aldiv@quotient+1),f
  1571  011A  0DAD               	rlf	(___aldiv@quotient+2),f
  1572  011B  0DAE               	rlf	(___aldiv@quotient+3),f
  1573  011C  0BA8               	decfsz	(??___aldiv+0)+0
  1574  011D  2917               	goto	u2885
  1575                           	line	27
  1576                           	
  1577  011E                     l3196:	
  1578  011E  0823               	movf	(___aldiv@divisor+3),w
  1579  011F  0227               	subwf	(___aldiv@dividend+3),w
  1580  0120  1D03               	skipz
  1581  0121  292C               	goto	u2895
  1582  0122  0822               	movf	(___aldiv@divisor+2),w
  1583  0123  0226               	subwf	(___aldiv@dividend+2),w
  1584  0124  1D03               	skipz
  1585  0125  292C               	goto	u2895
  1586  0126  0821               	movf	(___aldiv@divisor+1),w
  1587  0127  0225               	subwf	(___aldiv@dividend+1),w
  1588  0128  1D03               	skipz
  1589  0129  292C               	goto	u2895
  1590  012A  0820               	movf	(___aldiv@divisor),w
  1591  012B  0224               	subwf	(___aldiv@dividend),w
  1592  012C                     u2895:
  1593  012C  1C03               	skipc
  1594  012D  292F               	goto	u2891
  1595  012E  2930               	goto	u2890
  1596  012F                     u2891:
  1597  012F  2940               	goto	l3202
  1598  0130                     u2890:
  1599                           	line	28
  1600                           	
  1601  0130                     l3198:	
  1602  0130  0820               	movf	(___aldiv@divisor),w
  1603  0131  02A4               	subwf	(___aldiv@dividend),f
  1604  0132  0821               	movf	(___aldiv@divisor+1),w
  1605  0133  1C03               	skipc
  1606  0134  0F21               	incfsz	(___aldiv@divisor+1),w
  1607  0135  02A5               	subwf	(___aldiv@dividend+1),f
  1608  0136  0822               	movf	(___aldiv@divisor+2),w
  1609  0137  1C03               	skipc
  1610  0138  0F22               	incfsz	(___aldiv@divisor+2),w
  1611  0139  02A6               	subwf	(___aldiv@dividend+2),f
  1612  013A  0823               	movf	(___aldiv@divisor+3),w
  1613  013B  1C03               	skipc
  1614  013C  0F23               	incfsz	(___aldiv@divisor+3),w
  1615  013D  02A7               	subwf	(___aldiv@dividend+3),f
  1616                           	line	29
  1617                           	
  1618  013E                     l3200:	
  1619  013E  142B               	bsf	(___aldiv@quotient)+(0/8),(0)&7
  1620  013F  2940               	goto	l3202
  1621                           	line	30
  1622                           	
  1623  0140                     l1646:	
  1624                           	line	31
  1625                           	
  1626  0140                     l3202:	
  1627  0140  3001               	movlw	01h
  1628  0141                     u2905:
  1629  0141  1003               	clrc
  1630  0142  0CA3               	rrf	(___aldiv@divisor+3),f
  1631  0143  0CA2               	rrf	(___aldiv@divisor+2),f
  1632  0144  0CA1               	rrf	(___aldiv@divisor+1),f
  1633  0145  0CA0               	rrf	(___aldiv@divisor),f
  1634  0146  3EFF               	addlw	-1
  1635  0147  1D03               	skipz
  1636  0148  2941               	goto	u2905
  1637                           
  1638                           	line	32
  1639                           	
  1640  0149                     l3204:	
  1641  0149  3001               	movlw	low(01h)
  1642  014A  02A9               	subwf	(___aldiv@counter),f
  1643  014B  1D03               	btfss	status,2
  1644  014C  294E               	goto	u2911
  1645  014D  294F               	goto	u2910
  1646  014E                     u2911:
  1647  014E  2915               	goto	l3194
  1648  014F                     u2910:
  1649  014F  2951               	goto	l3206
  1650                           	
  1651  0150                     l1647:	
  1652  0150  2951               	goto	l3206
  1653                           	line	33
  1654                           	
  1655  0151                     l1641:	
  1656                           	line	34
  1657                           	
  1658  0151                     l3206:	
  1659  0151  082A               	movf	(___aldiv@sign),w
  1660  0152  1D03               	skipz
  1661  0153  2955               	goto	u2920
  1662  0154  2961               	goto	l3210
  1663  0155                     u2920:
  1664                           	line	35
  1665                           	
  1666  0155                     l3208:	
  1667  0155  09AB               	comf	(___aldiv@quotient),f
  1668  0156  09AC               	comf	(___aldiv@quotient+1),f
  1669  0157  09AD               	comf	(___aldiv@quotient+2),f
  1670  0158  09AE               	comf	(___aldiv@quotient+3),f
  1671  0159  0AAB               	incf	(___aldiv@quotient),f
  1672  015A  1903               	skipnz
  1673  015B  0AAC               	incf	(___aldiv@quotient+1),f
  1674  015C  1903               	skipnz
  1675  015D  0AAD               	incf	(___aldiv@quotient+2),f
  1676  015E  1903               	skipnz
  1677  015F  0AAE               	incf	(___aldiv@quotient+3),f
  1678  0160  2961               	goto	l3210
  1679                           	
  1680  0161                     l1648:	
  1681                           	line	36
  1682                           	
  1683  0161                     l3210:	
  1684  0161  082E               	movf	(___aldiv@quotient+3),w
  1685  0162  00A3               	movwf	(?___aldiv+3)
  1686  0163  082D               	movf	(___aldiv@quotient+2),w
  1687  0164  00A2               	movwf	(?___aldiv+2)
  1688  0165  082C               	movf	(___aldiv@quotient+1),w
  1689  0166  00A1               	movwf	(?___aldiv+1)
  1690  0167  082B               	movf	(___aldiv@quotient),w
  1691  0168  00A0               	movwf	(?___aldiv)
  1692                           
  1693  0169  296A               	goto	l1649
  1694                           	
  1695  016A                     l3212:	
  1696                           	line	37
  1697                           	
  1698  016A                     l1649:	
  1699  016A  0008               	return
  1700                           	opt stack 0
  1701                           GLOBAL	__end_of___aldiv
  1702  016B                     	__end_of___aldiv:
  1703 ;; =============== function ___aldiv ends ============
  1704                           
  1705                           	signat	___aldiv,8316
  1706                           	global	___almod
  1707                           psect	text380,local,class=CODE,delta=2
  1708                           global __ptext380
  1709  016B                     __ptext380:
  1710                           
  1711 ;; *************** function ___almod *****************
  1712 ;; Defined at:
  1713 ;;		line 5 in file "C:\Program Files (x86)\HI-TECH Software\PICC\9.82\sources\almod.c"
  1714 ;; Parameters:    Size  Location     Type
  1715 ;;  divisor         4    0[BANK0 ] long 
  1716 ;;  dividend        4    4[BANK0 ] long 
  1717 ;; Auto vars:     Size  Location     Type
  1718 ;;  sign            1   10[BANK0 ] unsigned char 
  1719 ;;  counter         1    9[BANK0 ] unsigned char 
  1720 ;; Return value:  Size  Location     Type
  1721 ;;                  4    0[BANK0 ] long 
  1722 ;; Registers used:
  1723 ;;		wreg, status,2, status,0
  1724 ;; Tracked objects:
  1725 ;;		On entry : 0/0
  1726 ;;		On exit  : 0/0
  1727 ;;		Unchanged: 0/0
  1728 ;; Data sizes:     COMMON   BANK0   BANK1   BANK3   BANK2
  1729 ;;      Params:         0       8       0       0       0
  1730 ;;      Locals:         0       2       0       0       0
  1731 ;;      Temps:          0       1       0       0       0
  1732 ;;      Totals:         0      11       0       0       0
  1733 ;;Total ram usage:       11 bytes
  1734 ;; Hardware stack levels used:    1
  1735 ;; Hardware stack levels required when called:    1
  1736 ;; This function calls:
  1737 ;;		Nothing
  1738 ;; This function is called by:
  1739 ;;		_tostring
  1740 ;; This function uses a non-reentrant model
  1741 ;;
  1742                           psect	text380
  1743                           	file	"C:\Program Files (x86)\HI-TECH Software\PICC\9.82\sources\almod.c"
  1744                           	line	5
  1745                           	global	__size_of___almod
  1746  0092                     	__size_of___almod	equ	__end_of___almod-___almod
  1747                           	
  1748  016B                     ___almod:	
  1749                           	opt	stack 3
  1750                           ; Regs used in ___almod: [wreg+status,2+status,0]
  1751                           	line	8
  1752                           	
  1753  016B                     l3138:	
  1754  016B  1283               	bcf	status, 5	;RP0=0, select bank0
  1755  016C  1303               	bcf	status, 6	;RP1=0, select bank0
  1756  016D  01AA               	clrf	(___almod@sign)
  1757                           	line	9
  1758  016E  1FA7               	btfss	(___almod@dividend+3),7
  1759  016F  2971               	goto	u2741
  1760  0170  2972               	goto	u2740
  1761  0171                     u2741:
  1762  0171  2981               	goto	l3144
  1763  0172                     u2740:
  1764                           	line	10
  1765                           	
  1766  0172                     l3140:	
  1767  0172  09A4               	comf	(___almod@dividend),f
  1768  0173  09A5               	comf	(___almod@dividend+1),f
  1769  0174  09A6               	comf	(___almod@dividend+2),f
  1770  0175  09A7               	comf	(___almod@dividend+3),f
  1771  0176  0AA4               	incf	(___almod@dividend),f
  1772  0177  1903               	skipnz
  1773  0178  0AA5               	incf	(___almod@dividend+1),f
  1774  0179  1903               	skipnz
  1775  017A  0AA6               	incf	(___almod@dividend+2),f
  1776  017B  1903               	skipnz
  1777  017C  0AA7               	incf	(___almod@dividend+3),f
  1778                           	line	11
  1779                           	
  1780  017D                     l3142:	
  1781  017D  01AA               	clrf	(___almod@sign)
  1782  017E  1403               	bsf	status,0
  1783  017F  0DAA               	rlf	(___almod@sign),f
  1784  0180  2981               	goto	l3144
  1785                           	line	12
  1786                           	
  1787  0181                     l1626:	
  1788                           	line	13
  1789                           	
  1790  0181                     l3144:	
  1791  0181  1FA3               	btfss	(___almod@divisor+3),7
  1792  0182  2984               	goto	u2751
  1793  0183  2985               	goto	u2750
  1794  0184                     u2751:
  1795  0184  2991               	goto	l3148
  1796  0185                     u2750:
  1797                           	line	14
  1798                           	
  1799  0185                     l3146:	
  1800  0185  09A0               	comf	(___almod@divisor),f
  1801  0186  09A1               	comf	(___almod@divisor+1),f
  1802  0187  09A2               	comf	(___almod@divisor+2),f
  1803  0188  09A3               	comf	(___almod@divisor+3),f
  1804  0189  0AA0               	incf	(___almod@divisor),f
  1805  018A  1903               	skipnz
  1806  018B  0AA1               	incf	(___almod@divisor+1),f
  1807  018C  1903               	skipnz
  1808  018D  0AA2               	incf	(___almod@divisor+2),f
  1809  018E  1903               	skipnz
  1810  018F  0AA3               	incf	(___almod@divisor+3),f
  1811  0190  2991               	goto	l3148
  1812                           	
  1813  0191                     l1627:	
  1814                           	line	15
  1815                           	
  1816  0191                     l3148:	
  1817  0191  0823               	movf	(___almod@divisor+3),w
  1818  0192  0422               	iorwf	(___almod@divisor+2),w
  1819  0193  0421               	iorwf	(___almod@divisor+1),w
  1820  0194  0420               	iorwf	(___almod@divisor),w
  1821  0195  1903               	skipnz
  1822  0196  2998               	goto	u2761
  1823  0197  2999               	goto	u2760
  1824  0198                     u2761:
  1825  0198  29E3               	goto	l3164
  1826  0199                     u2760:
  1827                           	line	16
  1828                           	
  1829  0199                     l3150:	
  1830  0199  01A9               	clrf	(___almod@counter)
  1831  019A  1403               	bsf	status,0
  1832  019B  0DA9               	rlf	(___almod@counter),f
  1833                           	line	17
  1834  019C  29AB               	goto	l3154
  1835                           	
  1836  019D                     l1630:	
  1837                           	line	18
  1838                           	
  1839  019D                     l3152:	
  1840  019D  3001               	movlw	01h
  1841  019E  00A8               	movwf	(??___almod+0)+0
  1842  019F                     u2775:
  1843  019F  1003               	clrc
  1844  01A0  0DA0               	rlf	(___almod@divisor),f
  1845  01A1  0DA1               	rlf	(___almod@divisor+1),f
  1846  01A2  0DA2               	rlf	(___almod@divisor+2),f
  1847  01A3  0DA3               	rlf	(___almod@divisor+3),f
  1848  01A4  0BA8               	decfsz	(??___almod+0)+0
  1849  01A5  299F               	goto	u2775
  1850                           	line	19
  1851  01A6  3001               	movlw	(01h)
  1852  01A7  00A8               	movwf	(??___almod+0)+0
  1853  01A8  0828               	movf	(??___almod+0)+0,w
  1854  01A9  07A9               	addwf	(___almod@counter),f
  1855  01AA  29AB               	goto	l3154
  1856                           	line	20
  1857                           	
  1858  01AB                     l1629:	
  1859                           	line	17
  1860                           	
  1861  01AB                     l3154:	
  1862  01AB  1FA3               	btfss	(___almod@divisor+3),(31)&7
  1863  01AC  29AE               	goto	u2781
  1864  01AD  29AF               	goto	u2780
  1865  01AE                     u2781:
  1866  01AE  299D               	goto	l3152
  1867  01AF                     u2780:
  1868  01AF  29B1               	goto	l3156
  1869                           	
  1870  01B0                     l1631:	
  1871  01B0  29B1               	goto	l3156
  1872                           	line	21
  1873                           	
  1874  01B1                     l1632:	
  1875                           	line	22
  1876                           	
  1877  01B1                     l3156:	
  1878  01B1  0823               	movf	(___almod@divisor+3),w
  1879  01B2  0227               	subwf	(___almod@dividend+3),w
  1880  01B3  1D03               	skipz
  1881  01B4  29BF               	goto	u2795
  1882  01B5  0822               	movf	(___almod@divisor+2),w
  1883  01B6  0226               	subwf	(___almod@dividend+2),w
  1884  01B7  1D03               	skipz
  1885  01B8  29BF               	goto	u2795
  1886  01B9  0821               	movf	(___almod@divisor+1),w
  1887  01BA  0225               	subwf	(___almod@dividend+1),w
  1888  01BB  1D03               	skipz
  1889  01BC  29BF               	goto	u2795
  1890  01BD  0820               	movf	(___almod@divisor),w
  1891  01BE  0224               	subwf	(___almod@dividend),w
  1892  01BF                     u2795:
  1893  01BF  1C03               	skipc
  1894  01C0  29C2               	goto	u2791
  1895  01C1  29C3               	goto	u2790
  1896  01C2                     u2791:
  1897  01C2  29D2               	goto	l3160
  1898  01C3                     u2790:
  1899                           	line	23
  1900                           	
  1901  01C3                     l3158:	
  1902  01C3  0820               	movf	(___almod@divisor),w
  1903  01C4  02A4               	subwf	(___almod@dividend),f
  1904  01C5  0821               	movf	(___almod@divisor+1),w
  1905  01C6  1C03               	skipc
  1906  01C7  0F21               	incfsz	(___almod@divisor+1),w
  1907  01C8  02A5               	subwf	(___almod@dividend+1),f
  1908  01C9  0822               	movf	(___almod@divisor+2),w
  1909  01CA  1C03               	skipc
  1910  01CB  0F22               	incfsz	(___almod@divisor+2),w
  1911  01CC  02A6               	subwf	(___almod@dividend+2),f
  1912  01CD  0823               	movf	(___almod@divisor+3),w
  1913  01CE  1C03               	skipc
  1914  01CF  0F23               	incfsz	(___almod@divisor+3),w
  1915  01D0  02A7               	subwf	(___almod@dividend+3),f
  1916  01D1  29D2               	goto	l3160
  1917                           	
  1918  01D2                     l1633:	
  1919                           	line	24
  1920                           	
  1921  01D2                     l3160:	
  1922  01D2  3001               	movlw	01h
  1923  01D3                     u2805:
  1924  01D3  1003               	clrc
  1925  01D4  0CA3               	rrf	(___almod@divisor+3),f
  1926  01D5  0CA2               	rrf	(___almod@divisor+2),f
  1927  01D6  0CA1               	rrf	(___almod@divisor+1),f
  1928  01D7  0CA0               	rrf	(___almod@divisor),f
  1929  01D8  3EFF               	addlw	-1
  1930  01D9  1D03               	skipz
  1931  01DA  29D3               	goto	u2805
  1932                           
  1933                           	line	25
  1934                           	
  1935  01DB                     l3162:	
  1936  01DB  3001               	movlw	low(01h)
  1937  01DC  02A9               	subwf	(___almod@counter),f
  1938  01DD  1D03               	btfss	status,2
  1939  01DE  29E0               	goto	u2811
  1940  01DF  29E1               	goto	u2810
  1941  01E0                     u2811:
  1942  01E0  29B1               	goto	l3156
  1943  01E1                     u2810:
  1944  01E1  29E3               	goto	l3164
  1945                           	
  1946  01E2                     l1634:	
  1947  01E2  29E3               	goto	l3164
  1948                           	line	26
  1949                           	
  1950  01E3                     l1628:	
  1951                           	line	27
  1952                           	
  1953  01E3                     l3164:	
  1954  01E3  082A               	movf	(___almod@sign),w
  1955  01E4  1D03               	skipz
  1956  01E5  29E7               	goto	u2820
  1957  01E6  29F3               	goto	l3168
  1958  01E7                     u2820:
  1959                           	line	28
  1960                           	
  1961  01E7                     l3166:	
  1962  01E7  09A4               	comf	(___almod@dividend),f
  1963  01E8  09A5               	comf	(___almod@dividend+1),f
  1964  01E9  09A6               	comf	(___almod@dividend+2),f
  1965  01EA  09A7               	comf	(___almod@dividend+3),f
  1966  01EB  0AA4               	incf	(___almod@dividend),f
  1967  01EC  1903               	skipnz
  1968  01ED  0AA5               	incf	(___almod@dividend+1),f
  1969  01EE  1903               	skipnz
  1970  01EF  0AA6               	incf	(___almod@dividend+2),f
  1971  01F0  1903               	skipnz
  1972  01F1  0AA7               	incf	(___almod@dividend+3),f
  1973  01F2  29F3               	goto	l3168
  1974                           	
  1975  01F3                     l1635:	
  1976                           	line	29
  1977                           	
  1978  01F3                     l3168:	
  1979  01F3  0827               	movf	(___almod@dividend+3),w
  1980  01F4  00A3               	movwf	(?___almod+3)
  1981  01F5  0826               	movf	(___almod@dividend+2),w
  1982  01F6  00A2               	movwf	(?___almod+2)
  1983  01F7  0825               	movf	(___almod@dividend+1),w
  1984  01F8  00A1               	movwf	(?___almod+1)
  1985  01F9  0824               	movf	(___almod@dividend),w
  1986  01FA  00A0               	movwf	(?___almod)
  1987                           
  1988  01FB  29FC               	goto	l1636
  1989                           	
  1990  01FC                     l3170:	
  1991                           	line	30
  1992                           	
  1993  01FC                     l1636:	
  1994  01FC  0008               	return
  1995                           	opt stack 0
  1996                           GLOBAL	__end_of___almod
  1997  01FD                     	__end_of___almod:
  1998 ;; =============== function ___almod ends ============
  1999                           
  2000                           	signat	___almod,8316
  2001                           	global	_delay
  2002                           psect	text381,local,class=CODE,delta=2
  2003                           global __ptext381
  2004  0344                     __ptext381:
  2005                           
  2006 ;; *************** function _delay *****************
  2007 ;; Defined at:
  2008 ;;		line 139 in file "D:\EE\Mplabcode\Task_2\Transmitter.c"
  2009 ;; Parameters:    Size  Location     Type
  2010 ;;  t               2    0[BANK0 ] int 
  2011 ;; Auto vars:     Size  Location     Type
  2012 ;;  i               2    3[BANK0 ] int 
  2013 ;; Return value:  Size  Location     Type
  2014 ;;		None               void
  2015 ;; Registers used:
  2016 ;;		wreg, status,2
  2017 ;; Tracked objects:
  2018 ;;		On entry : 0/0
  2019 ;;		On exit  : 0/0
  2020 ;;		Unchanged: 0/0
  2021 ;; Data sizes:     COMMON   BANK0   BANK1   BANK3   BANK2
  2022 ;;      Params:         0       2       0       0       0
  2023 ;;      Locals:         0       2       0       0       0
  2024 ;;      Temps:          0       1       0       0       0
  2025 ;;      Totals:         0       5       0       0       0
  2026 ;;Total ram usage:        5 bytes
  2027 ;; Hardware stack levels used:    1
  2028 ;; Hardware stack levels required when called:    1
  2029 ;; This function calls:
  2030 ;;		Nothing
  2031 ;; This function is called by:
  2032 ;;		_init
  2033 ;;		_enable
  2034 ;; This function uses a non-reentrant model
  2035 ;;
  2036                           psect	text381
  2037                           	file	"D:\EE\Mplabcode\Task_2\Transmitter.c"
  2038                           	line	139
  2039                           	global	__size_of_delay
  2040  001D                     	__size_of_delay	equ	__end_of_delay-_delay
  2041                           	
  2042  0344                     _delay:	
  2043                           	opt	stack 3
  2044                           ; Regs used in _delay: [wreg+status,2]
  2045                           	line	140
  2046                           	
  2047  0344                     l3134:	
  2048                           ;Transmitter.c: 140: for (int i=0;i<t;++i) ;
  2049  0344  1283               	bcf	status, 5	;RP0=0, select bank0
  2050  0345  1303               	bcf	status, 6	;RP1=0, select bank0
  2051  0346  01A3               	clrf	(delay@i)
  2052  0347  01A4               	clrf	(delay@i+1)
  2053  0348  2B51               	goto	l742
  2054                           	
  2055  0349                     l743:	
  2056                           	
  2057  0349                     l3136:	
  2058  0349  3001               	movlw	low(01h)
  2059  034A  1283               	bcf	status, 5	;RP0=0, select bank0
  2060  034B  1303               	bcf	status, 6	;RP1=0, select bank0
  2061  034C  07A3               	addwf	(delay@i),f
  2062  034D  1803               	skipnc
  2063  034E  0AA4               	incf	(delay@i+1),f
  2064  034F  3000               	movlw	high(01h)
  2065  0350  07A4               	addwf	(delay@i+1),f
  2066                           	
  2067  0351                     l742:	
  2068  0351  0824               	movf	(delay@i+1),w
  2069  0352  3A80               	xorlw	80h
  2070  0353  00A2               	movwf	(??_delay+0)+0
  2071  0354  0821               	movf	(delay@t+1),w
  2072  0355  3A80               	xorlw	80h
  2073  0356  0222               	subwf	(??_delay+0)+0,w
  2074  0357  1D03               	skipz
  2075  0358  2B5B               	goto	u2735
  2076  0359  0820               	movf	(delay@t),w
  2077  035A  0223               	subwf	(delay@i),w
  2078  035B                     u2735:
  2079                           
  2080  035B  1C03               	skipc
  2081  035C  2B5E               	goto	u2731
  2082  035D  2B5F               	goto	u2730
  2083  035E                     u2731:
  2084  035E  2B49               	goto	l3136
  2085  035F                     u2730:
  2086  035F  2B60               	goto	l745
  2087                           	
  2088  0360                     l744:	
  2089                           	line	141
  2090                           	
  2091  0360                     l745:	
  2092  0360  0008               	return
  2093                           	opt stack 0
  2094                           GLOBAL	__end_of_delay
  2095  0361                     	__end_of_delay:
  2096 ;; =============== function _delay ends ============
  2097                           
  2098                           	signat	_delay,4216
  2099                           	global	_ccp1
  2100                           psect	text382,local,class=CODE,delta=2
  2101                           global __ptext382
  2102  0015                     __ptext382:
  2103                           
  2104 ;; *************** function _ccp1 *****************
  2105 ;; Defined at:
  2106 ;;		line 29 in file "D:\EE\Mplabcode\Task_2\Transmitter.c"
  2107 ;; Parameters:    Size  Location     Type
  2108 ;;		None
  2109 ;; Auto vars:     Size  Location     Type
  2110 ;;		None
  2111 ;; Return value:  Size  Location     Type
  2112 ;;		None               void
  2113 ;; Registers used:
  2114 ;;		wreg, status,2, status,0
  2115 ;; Tracked objects:
  2116 ;;		On entry : 0/0
  2117 ;;		On exit  : 0/0
  2118 ;;		Unchanged: 0/0
  2119 ;; Data sizes:     COMMON   BANK0   BANK1   BANK3   BANK2
  2120 ;;      Params:         0       0       0       0       0
  2121 ;;      Locals:         0       0       0       0       0
  2122 ;;      Temps:          5       0       0       0       0
  2123 ;;      Totals:         5       0       0       0       0
  2124 ;;Total ram usage:        5 bytes
  2125 ;; Hardware stack levels used:    1
  2126 ;; This function calls:
  2127 ;;		Nothing
  2128 ;; This function is called by:
  2129 ;;		Interrupt level 1
  2130 ;; This function uses a non-reentrant model
  2131 ;;
  2132                           psect	text382
  2133                           	file	"D:\EE\Mplabcode\Task_2\Transmitter.c"
  2134                           	line	29
  2135                           	global	__size_of_ccp1
  2136  00AE                     	__size_of_ccp1	equ	__end_of_ccp1-_ccp1
  2137                           	
  2138  0015                     _ccp1:	
  2139                           	opt	stack 3
  2140                           ; Regs used in _ccp1: [wreg+status,2+status,0]
  2141                           psect	intentry,class=CODE,delta=2
  2142                           global __pintentry
  2143  0004                     __pintentry:
  2144                           global interrupt_function
  2145  0004                     interrupt_function:
  2146                           	global saved_w
  2147  007E                     	saved_w	set	btemp+0
  2148  0004  00FE               	movwf	saved_w
  2149  0005  0E03               	swapf	status,w
  2150  0006  00F1               	movwf	(??_ccp1+1)
  2151  0007  0804               	movf	fsr0,w
  2152  0008  00F2               	movwf	(??_ccp1+2)
  2153  0009  080A               	movf	pclath,w
  2154  000A  00F3               	movwf	(??_ccp1+3)
  2155  000B  1283               	bcf	status, 5	;RP0=0, select bank0
  2156  000C  1303               	bcf	status, 6	;RP1=0, select bank0
  2157  000D  087F               	movf	btemp+1,w
  2158  000E  00F4               	movwf	(??_ccp1+4)
  2159  000F  120A  118A  2815   	ljmp	_ccp1
  2160                           psect	text382
  2161                           	line	30
  2162                           	
  2163  0015                     i1l2880:	
  2164                           ;Transmitter.c: 30: if(CCP1IF){
  2165  0015  1D0C               	btfss	(98/8),(98)&7
  2166  0016  2818               	goto	u238_21
  2167  0017  2819               	goto	u238_20
  2168  0018                     u238_21:
  2169  0018  28B2               	goto	i1l715
  2170  0019                     u238_20:
  2171                           	line	31
  2172                           	
  2173  0019                     i1l2882:	
  2174                           ;Transmitter.c: 31: CCP1IF=0;
  2175  0019  110C               	bcf	(98/8),(98)&7
  2176                           	line	32
  2177                           ;Transmitter.c: 32: if(tsmflag){
  2178  001A  1D75               	btfss	(_tsmflag/8),(_tsmflag)&7
  2179  001B  281D               	goto	u239_21
  2180  001C  281E               	goto	u239_20
  2181  001D                     u239_21:
  2182  001D  287F               	goto	i1l2926
  2183  001E                     u239_20:
  2184                           	line	33
  2185                           	
  2186  001E                     i1l2884:	
  2187                           ;Transmitter.c: 33: hflag=!hflag;
  2188  001E  3001               	movlw	1<<((_hflag)&7)
  2189  001F  06F5               	xorwf	((_hflag)/8),f
  2190                           	line	34
  2191                           	
  2192  0020                     i1l2886:	
  2193                           ;Transmitter.c: 34: if(hflag){
  2194  0020  1C75               	btfss	(_hflag/8),(_hflag)&7
  2195  0021  2823               	goto	u240_21
  2196  0022  2824               	goto	u240_20
  2197  0023                     u240_21:
  2198  0023  2830               	goto	i1l2896
  2199  0024                     u240_20:
  2200                           	line	35
  2201                           	
  2202  0024                     i1l2888:	
  2203                           ;Transmitter.c: 35: RC7=1;
  2204  0024  1787               	bsf	(63/8),(63)&7
  2205                           	line	36
  2206                           	
  2207  0025                     i1l2890:	
  2208                           ;Transmitter.c: 36: CCPR1H=TMR1H;
  2209  0025  080F               	movf	(15),w	;volatile
  2210  0026  0096               	movwf	(22)	;volatile
  2211                           	line	37
  2212                           	
  2213  0027                     i1l2892:	
  2214                           ;Transmitter.c: 37: CCPR1L=TMR1L+55;
  2215  0027  080E               	movf	(14),w	;volatile
  2216  0028  3E37               	addlw	037h
  2217  0029  0095               	movwf	(21)	;volatile
  2218                           	line	38
  2219                           	
  2220  002A                     i1l2894:	
  2221                           ;Transmitter.c: 38: CCPR1H=CCPR1H+CARRY;
  2222  002A  3000               	movlw	0
  2223  002B  1803               	btfsc	(24/8),(24)&7
  2224  002C  3001               	movlw	1
  2225  002D  0716               	addwf	(22),w	;volatile
  2226  002E  0096               	movwf	(22)	;volatile
  2227                           	line	39
  2228                           ;Transmitter.c: 39: }
  2229  002F  28B8               	goto	i1l729
  2230                           	line	40
  2231                           	
  2232  0030                     i1l717:	
  2233                           	
  2234  0030                     i1l2896:	
  2235                           ;Transmitter.c: 40: else if(cnt==1){
  2236  0030  0879               	movf	(_cnt),w
  2237  0031  3A01               	xorlw	01h
  2238  0032  1D03               	skipz
  2239  0033  2835               	goto	u241_21
  2240  0034  2836               	goto	u241_20
  2241  0035                     u241_21:
  2242  0035  2845               	goto	i1l2902
  2243  0036                     u241_20:
  2244                           	line	41
  2245                           	
  2246  0036                     i1l2898:	
  2247                           ;Transmitter.c: 41: RC7=0;
  2248  0036  1387               	bcf	(63/8),(63)&7
  2249                           	line	42
  2250                           	
  2251  0037                     i1l2900:	
  2252                           ;Transmitter.c: 42: CCPR1L=TMR1L+79;
  2253  0037  080E               	movf	(14),w	;volatile
  2254  0038  3E4F               	addlw	04Fh
  2255  0039  0095               	movwf	(21)	;volatile
  2256                           	line	43
  2257                           ;Transmitter.c: 43: CCPR1H=TMR1H+CARRY;
  2258  003A  3000               	movlw	0
  2259  003B  1803               	btfsc	(24/8),(24)&7
  2260  003C  3001               	movlw	1
  2261  003D  070F               	addwf	(15),w	;volatile
  2262  003E  0096               	movwf	(22)	;volatile
  2263                           	line	44
  2264                           ;Transmitter.c: 44: CCPR1H=TMR1H+0x02;
  2265  003F  080F               	movf	(15),w	;volatile
  2266  0040  3E02               	addlw	02h
  2267  0041  0096               	movwf	(22)	;volatile
  2268                           	line	45
  2269                           ;Transmitter.c: 45: --cnt;
  2270  0042  3001               	movlw	low(01h)
  2271  0043  02F9               	subwf	(_cnt),f
  2272                           	line	46
  2273                           ;Transmitter.c: 46: }
  2274  0044  28B8               	goto	i1l729
  2275                           	line	47
  2276                           	
  2277  0045                     i1l719:	
  2278                           	
  2279  0045                     i1l2902:	
  2280                           ;Transmitter.c: 47: else if(cnt==0){
  2281  0045  08F9               	movf	(_cnt),f
  2282  0046  1D03               	skipz
  2283  0047  2849               	goto	u242_21
  2284  0048  284A               	goto	u242_20
  2285  0049                     u242_21:
  2286  0049  2859               	goto	i1l721
  2287  004A                     u242_20:
  2288                           	line	48
  2289                           	
  2290  004A                     i1l2904:	
  2291                           ;Transmitter.c: 48: RC7=0;
  2292  004A  1387               	bcf	(63/8),(63)&7
  2293                           	line	49
  2294                           	
  2295  004B                     i1l2906:	
  2296                           ;Transmitter.c: 49: CCP1CON=5;
  2297  004B  3005               	movlw	(05h)
  2298  004C  0097               	movwf	(23)	;volatile
  2299                           	line	50
  2300                           	
  2301  004D                     i1l2908:	
  2302                           ;Transmitter.c: 50: tsmflag=0;
  2303  004D  1175               	bcf	(_tsmflag/8),(_tsmflag)&7
  2304                           	line	51
  2305                           ;Transmitter.c: 51: data.l=1;
  2306  004E  3000               	movlw	0
  2307  004F  00D3               	movwf	(_data+3)
  2308  0050  3000               	movlw	0
  2309  0051  00D2               	movwf	(_data+2)
  2310  0052  3000               	movlw	0
  2311  0053  00D1               	movwf	(_data+1)
  2312  0054  3001               	movlw	01h
  2313  0055  00D0               	movwf	(_data)
  2314                           
  2315                           	line	52
  2316                           	
  2317  0056                     i1l2910:	
  2318                           ;Transmitter.c: 52: icnt=0;
  2319  0056  01F7               	clrf	(_icnt)
  2320                           	line	53
  2321                           	
  2322  0057                     i1l2912:	
  2323                           ;Transmitter.c: 53: hflag=0;
  2324  0057  1075               	bcf	(_hflag/8),(_hflag)&7
  2325                           	line	54
  2326                           ;Transmitter.c: 54: }
  2327  0058  28B8               	goto	i1l729
  2328                           	line	55
  2329                           	
  2330  0059                     i1l721:	
  2331                           	line	56
  2332                           ;Transmitter.c: 55: else{
  2333                           ;Transmitter.c: 56: RC7=0;
  2334  0059  1387               	bcf	(63/8),(63)&7
  2335                           	line	57
  2336                           ;Transmitter.c: 57: if(data.l&0x800000){
  2337  005A  1FD2               	btfss	(_data+2),(23)&7
  2338  005B  285D               	goto	u243_21
  2339  005C  285E               	goto	u243_20
  2340  005D                     u243_21:
  2341  005D  2865               	goto	i1l2916
  2342  005E                     u243_20:
  2343                           	line	58
  2344                           	
  2345  005E                     i1l2914:	
  2346                           ;Transmitter.c: 58: CCPR1H=TMR1H+1;
  2347  005E  080F               	movf	(15),w	;volatile
  2348  005F  3E01               	addlw	01h
  2349  0060  0096               	movwf	(22)	;volatile
  2350                           	line	59
  2351                           ;Transmitter.c: 59: CCPR1L=TMR1L+16;
  2352  0061  080E               	movf	(14),w	;volatile
  2353  0062  3E10               	addlw	010h
  2354  0063  0095               	movwf	(21)	;volatile
  2355                           	line	60
  2356                           ;Transmitter.c: 60: }
  2357  0064  286B               	goto	i1l2920
  2358                           	line	61
  2359                           	
  2360  0065                     i1l723:	
  2361                           	line	62
  2362                           	
  2363  0065                     i1l2916:	
  2364                           ;Transmitter.c: 61: else{
  2365                           ;Transmitter.c: 62: CCPR1H=TMR1H;
  2366  0065  080F               	movf	(15),w	;volatile
  2367  0066  0096               	movwf	(22)	;volatile
  2368                           	line	63
  2369                           	
  2370  0067                     i1l2918:	
  2371                           ;Transmitter.c: 63: CCPR1L=TMR1L+64;
  2372  0067  080E               	movf	(14),w	;volatile
  2373  0068  3E40               	addlw	040h
  2374  0069  0095               	movwf	(21)	;volatile
  2375  006A  286B               	goto	i1l2920
  2376                           	line	64
  2377                           	
  2378  006B                     i1l724:	
  2379                           	line	65
  2380                           	
  2381  006B                     i1l2920:	
  2382                           ;Transmitter.c: 64: }
  2383                           ;Transmitter.c: 65: CCPR1H=CCPR1H+CARRY;
  2384  006B  3000               	movlw	0
  2385  006C  1803               	btfsc	(24/8),(24)&7
  2386  006D  3001               	movlw	1
  2387  006E  0716               	addwf	(22),w	;volatile
  2388  006F  0096               	movwf	(22)	;volatile
  2389                           	line	66
  2390                           	
  2391  0070                     i1l2922:	
  2392                           ;Transmitter.c: 66: --cnt;
  2393  0070  3001               	movlw	low(01h)
  2394  0071  02F9               	subwf	(_cnt),f
  2395                           	line	67
  2396                           	
  2397  0072                     i1l2924:	
  2398                           ;Transmitter.c: 67: data.l<<=1;
  2399  0072  3001               	movlw	01h
  2400  0073  00F0               	movwf	(??_ccp1+0)+0
  2401  0074                     u244_25:
  2402  0074  1003               	clrc
  2403  0075  0DD0               	rlf	(_data),f
  2404  0076  0DD1               	rlf	(_data+1),f
  2405  0077  0DD2               	rlf	(_data+2),f
  2406  0078  0DD3               	rlf	(_data+3),f
  2407  0079  0BF0               	decfsz	(??_ccp1+0)+0
  2408  007A  2874               	goto	u244_25
  2409  007B  28B8               	goto	i1l729
  2410                           	line	68
  2411                           	
  2412  007C                     i1l722:	
  2413  007C  28B8               	goto	i1l729
  2414                           	
  2415  007D                     i1l720:	
  2416  007D  28B8               	goto	i1l729
  2417                           	
  2418  007E                     i1l718:	
  2419                           	line	69
  2420                           ;Transmitter.c: 68: }
  2421                           ;Transmitter.c: 69: }
  2422  007E  28B8               	goto	i1l729
  2423                           	line	70
  2424                           	
  2425  007F                     i1l716:	
  2426                           	line	71
  2427                           	
  2428  007F                     i1l2926:	
  2429                           ;Transmitter.c: 70: else{
  2430                           ;Transmitter.c: 71: icnt=!icnt;
  2431  007F  08F7               	movf	(_icnt)
  2432  0080  3000               	movlw	0
  2433  0081  1903               	skipnz
  2434  0082  3001               	movlw	1
  2435  0083  00F0               	movwf	(??_ccp1+0)+0
  2436  0084  0870               	movf	(??_ccp1+0)+0,w
  2437  0085  00F7               	movwf	(_icnt)
  2438                           	line	72
  2439                           	
  2440  0086                     i1l2928:	
  2441                           ;Transmitter.c: 72: if(icnt==0){
  2442  0086  08F7               	movf	(_icnt),f
  2443  0087  1D03               	skipz
  2444  0088  288A               	goto	u245_21
  2445  0089  288B               	goto	u245_20
  2446  008A                     u245_21:
  2447  008A  28AC               	goto	i1l2944
  2448  008B                     u245_20:
  2449                           	line	73
  2450                           	
  2451  008B                     i1l2930:	
  2452                           ;Transmitter.c: 73: showdata.c[0]=TMR1L+5;
  2453  008B  080E               	movf	(14),w	;volatile
  2454  008C  3E05               	addlw	05h
  2455  008D  00F0               	movwf	(??_ccp1+0)+0
  2456  008E  0870               	movf	(??_ccp1+0)+0,w
  2457  008F  00D4               	movwf	(_showdata)
  2458                           	line	74
  2459                           ;Transmitter.c: 74: showdata.c[1]=TMR1H+CARRY;
  2460  0090  3000               	movlw	0
  2461  0091  1803               	btfsc	(24/8),(24)&7
  2462  0092  3001               	movlw	1
  2463  0093  070F               	addwf	(15),w	;volatile
  2464  0094  00F0               	movwf	(??_ccp1+0)+0
  2465  0095  0870               	movf	(??_ccp1+0)+0,w
  2466  0096  00D5               	movwf	0+(_showdata)+01h
  2467                           	line	75
  2468                           	
  2469  0097                     i1l2932:	
  2470                           ;Transmitter.c: 75: showdata.c[2]=tout;
  2471  0097  0878               	movf	(_tout),w
  2472  0098  00F0               	movwf	(??_ccp1+0)+0
  2473  0099  0870               	movf	(??_ccp1+0)+0,w
  2474  009A  00D6               	movwf	0+(_showdata)+02h
  2475                           	line	77
  2476                           	
  2477  009B                     i1l2934:	
  2478                           ;Transmitter.c: 77: data.l=showdata.l;
  2479  009B  0857               	movf	(_showdata+3),w
  2480  009C  00D3               	movwf	(_data+3)
  2481  009D  0856               	movf	(_showdata+2),w
  2482  009E  00D2               	movwf	(_data+2)
  2483  009F  0855               	movf	(_showdata+1),w
  2484  00A0  00D1               	movwf	(_data+1)
  2485  00A1  0854               	movf	(_showdata),w
  2486  00A2  00D0               	movwf	(_data)
  2487                           
  2488                           	line	78
  2489                           	
  2490  00A3                     i1l2936:	
  2491                           ;Transmitter.c: 78: showflag=1;
  2492  00A3  14F5               	bsf	(_showflag/8),(_showflag)&7
  2493                           	line	80
  2494                           	
  2495  00A4                     i1l2938:	
  2496                           ;Transmitter.c: 80: tsmflag=1;
  2497  00A4  1575               	bsf	(_tsmflag/8),(_tsmflag)&7
  2498                           	line	81
  2499                           	
  2500  00A5                     i1l2940:	
  2501                           ;Transmitter.c: 81: CCP1CON=10;
  2502  00A5  300A               	movlw	(0Ah)
  2503  00A6  0097               	movwf	(23)	;volatile
  2504                           	line	82
  2505                           	
  2506  00A7                     i1l2942:	
  2507                           ;Transmitter.c: 82: cnt=25;
  2508  00A7  3019               	movlw	(019h)
  2509  00A8  00F0               	movwf	(??_ccp1+0)+0
  2510  00A9  0870               	movf	(??_ccp1+0)+0,w
  2511  00AA  00F9               	movwf	(_cnt)
  2512                           	line	83
  2513                           ;Transmitter.c: 83: }
  2514  00AB  28B8               	goto	i1l729
  2515                           	line	84
  2516                           	
  2517  00AC                     i1l726:	
  2518                           	line	85
  2519                           	
  2520  00AC                     i1l2944:	
  2521                           ;Transmitter.c: 84: else{
  2522                           ;Transmitter.c: 85: TMR1L=0;
  2523  00AC  018E               	clrf	(14)	;volatile
  2524                           	line	86
  2525                           ;Transmitter.c: 86: TMR1H=0;
  2526  00AD  018F               	clrf	(15)	;volatile
  2527                           	line	87
  2528                           	
  2529  00AE                     i1l2946:	
  2530                           ;Transmitter.c: 87: tout=0;
  2531  00AE  01F8               	clrf	(_tout)
  2532  00AF  28B8               	goto	i1l729
  2533                           	line	88
  2534                           	
  2535  00B0                     i1l727:	
  2536  00B0  28B8               	goto	i1l729
  2537                           	line	89
  2538                           	
  2539  00B1                     i1l725:	
  2540                           	line	90
  2541                           ;Transmitter.c: 88: }
  2542                           ;Transmitter.c: 89: }
  2543                           ;Transmitter.c: 90: }
  2544  00B1  28B8               	goto	i1l729
  2545                           	line	91
  2546                           	
  2547  00B2                     i1l715:	
  2548                           	line	92
  2549                           ;Transmitter.c: 91: else{
  2550                           ;Transmitter.c: 92: TMR1IF=0;
  2551  00B2  100C               	bcf	(96/8),(96)&7
  2552                           	line	93
  2553                           	
  2554  00B3                     i1l2948:	
  2555                           ;Transmitter.c: 93: ++tout;
  2556  00B3  3001               	movlw	(01h)
  2557  00B4  00F0               	movwf	(??_ccp1+0)+0
  2558  00B5  0870               	movf	(??_ccp1+0)+0,w
  2559  00B6  07F8               	addwf	(_tout),f
  2560  00B7  28B8               	goto	i1l729
  2561                           	line	94
  2562                           	
  2563  00B8                     i1l728:	
  2564                           	line	95
  2565                           	
  2566  00B8                     i1l729:	
  2567  00B8  0874               	movf	(??_ccp1+4),w
  2568  00B9  00FF               	movwf	btemp+1
  2569  00BA  0873               	movf	(??_ccp1+3),w
  2570  00BB  008A               	movwf	pclath
  2571  00BC  0872               	movf	(??_ccp1+2),w
  2572  00BD  0084               	movwf	fsr0
  2573  00BE  0E71               	swapf	(??_ccp1+1)^0FFFFFF80h,w
  2574  00BF  0083               	movwf	status
  2575  00C0  0EFE               	swapf	saved_w,f
  2576  00C1  0E7E               	swapf	saved_w,w
  2577  00C2  0009               	retfie
  2578                           	opt stack 0
  2579                           GLOBAL	__end_of_ccp1
  2580  00C3                     	__end_of_ccp1:
  2581 ;; =============== function _ccp1 ends ============
  2582                           
  2583                           	signat	_ccp1,88
  2584                           psect	text383,local,class=CODE,delta=2
  2585                           global __ptext383
  2586  0000                     __ptext383:
  2587                           	global	btemp
  2588  007E                     	btemp set 07Eh
  2589                           
  2590                           	DABS	1,126,2	;btemp
  2591                           	global	wtemp0
  2592  007E                     	wtemp0 set btemp


HI-TECH Software PICC Macro Assembler V9.82 build 9453 
Symbol Table                                                                                   Sun Nov 28 15:51:16 2021

                   _s 003C                     pc 0002                    _RD 0C60                    _WR 0C61  
                  fsr 0004                   l732 0317                   l733 0322                   l742 0351  
                 l734 0323                   l743 0349                   l751 0209                   l735 0324  
                 l744 0360                   l752 0253                   l736 0324                   l745 0360  
                 l753 0253                   l761 0343                   l739 02E4                   l748 037B  
                 l756 0276                   l757 029D                   l758 029D                   _GIE 005F  
                 _RA3 002B                   _RA4 002C                   _RA5 002D                   _RC7 003F  
                 _end 0076                   _cnt 0079                   fsr0 0004                   indf 0000  
                l3200 013E                  l3210 0161                  l3202 0140                  l3140 0172  
                l3212 016A                  l3204 0149                  l3220 01FD                  l3300 0334  
                l3134 0344                  l1630 019D                  l3150 0199                  l3142 017D  
                l3206 0151                  l3214 0361                  l3230 0248                  l3222 0203  
                l3310 031B                  l3302 0309                  l1631 01B0                  l3136 0349  
                l3160 01D2                  l1632 01B1                  l3152 019D                  l3144 0181  
                l3208 0155                  l1640 00ED                  l3216 036F                  l3232 024E  
                l3224 0208                  l3240 02A4                  l3312 031C                  l3304 030E  
                l1633 01D2                  l1641 0151                  l3170 01FC                  l1634 01E2  
                l3162 01DB                  l3154 01AB                  l3146 0185                  l1626 0181  
                l3138 016B                  l1642 010F                  l3218 0378                  l3226 0209  
                l3250 02AD                  l3242 02A6                  l3234 029E                  l3306 0313  
                l1635 01F3                  l1627 0191                  l1643 0101                  l1636 01FC  
                l1628 01E3                  l3156 01B1                  l3164 01E3                  l3148 0191  
                l1644 0114                  l3180 00DD                  l3172 00C3                  l3228 0229  
                l3260 02D1                  l3252 02B6                  l3244 02A8                  l3236 02A2  
                l3308 0317                  l1629 01AB                  l1645 0115                  l3166 01E7  
                l3158 01C3                  l1646 0140                  l3190 0101                  l3182 00E8  
                l3174 00CA                  l3270 02D8                  l3262 02D2                  l3254 02C3  
                l3246 02AB                  l3238 02A3                  l1647 0150                  l1639 00D9  
                l3168 01F3                  l1648 0161                  l3192 010F                  l3184 00ED  
                l3176 00D5                  l3272 02DB                  l3264 02D3                  l3256 02C7  
                l3248 02AC                  l3280 0254                  l1649 016A                  l3194 0115  
                l3186 00F5                  l3178 00D9                  l3274 02DE                  l3266 02D4  
                l3258 02D0                  l3290 027E                  l3282 0263                  l3196 011E  
                l3188 00FD                  l3276 02E1                  l3268 02D5                  l3292 0287  
                l3284 0267                  l3198 0130                  l3278 02E2                  l3294 028F  
                l3286 0275                  l3288 0276                  l3296 0327                  l3298 032B  
                u2730 035F                  u2810 01E1                  u2731 035E                  u2811 01E0  
                u2820 01E7                  u2740 0172                  u2805 01D3                  u2741 0171  
                u2750 0185                  u2910 014F                  u2830 00CA                  u2735 035B  
                u2751 0184                  u2911 014E                  u2831 00C9                  u2760 0199  
                u2920 0155                  u2840 00DD                  u2761 0198                  u2905 0141  
                u2841 00DC                  u2850 00FD                  u2930 036A                  u2851 00FC  
                u2931 0366                  _PEIE 005E                  u2780 01AF                  u2781 01AE  
                u2790 01C3                  u2870 0113                  u2950 0207                  u2791 01C2  
                u2775 019F                  u2871 0112                  u2951 0206                  u2944 036D  
                u2960 0252                  u2865 0103                  u2961 0251                  u2890 0130  
                u2970 0274                  u2795 01BF                  u2891 012F                  u2971 0273  
                u2980 029C                  u2885 0117                  u2981 029B                  u2990 031B  
                u2895 012C                  u2975 0270                  u2991 031A                  u2985 0298  
                _WREN 0C62                  _ccp1 0015                  _data 0050                  _icnt 0077  
                _main 0309                  _init 029E                  _show 0327                  btemp 007E  
                _tout 0078                  start 0012                 ?_ccp1 0070       __end_of___aldiv 016B  
     __end_of___almod 01FD                 ?_main 0070                 ?_init 0070                 _EEADR 010D  
               ?_show 0070                 _CARRY 0018                 _T1CON 0010                 i1l720 007D  
               i1l721 0059                 i1l722 007C                 i1l723 0065                 i1l715 00B2  
               i1l716 007F                 i1l724 006B                 i1l725 00B1                 i1l717 0030  
               i1l726 00AC                 i1l718 007E                 i1l727 00B0                 i1l719 0045  
               i1l728 00B8                 i1l729 00B8                 _TMR1H 000F                 _TMR1L 000E  
               _PORTD 0008                 _TRISA 0085                 _TRISB 0086                 _TRISD 0088  
               _delay 0344                 _hflag 03A8        __pbitbssCOMMON 03A8                 pclath 000A  
               status 0003                 wtemp0 007E          __end_of_ccp1 00C3          __end_of_main 0327  
        __end_of_init 02E5          __end_of_show 0344                ??_ccp1 0070                ??_main 003C  
              ??_init 0027                ??_show 003C                ?_delay 0020                _ADCON1 009F  
              _CCP1IE 0462                _CCP1IF 0062                _EEDATA 010C                _CCPR1H 0016  
              _CCPR1L 0015                _EECON1 018C                _EECON2 018D                i1l2900 0037  
              i1l2910 0056                i1l2902 0045                i1l2920 006B                i1l2912 0057  
              i1l2904 004A                i1l2930 008B                i1l2922 0070                i1l2914 005E  
              i1l2906 004B                i1l2940 00A5                i1l2932 0097                i1l2924 0072  
              i1l2916 0065                i1l2908 004D                i1l2942 00A7                i1l2934 009B  
              i1l2918 0067                i1l2926 007F                i1l2936 00A3                i1l2944 00AC  
              i1l2928 0086                i1l2880 0015                i1l2946 00AE                i1l2938 00A4  
              i1l2890 0025                i1l2882 0019                i1l2948 00B3                i1l2892 0027  
              i1l2884 001E                i1l2894 002A                i1l2886 0020                i1l2888 0024  
              i1l2896 0030                i1l2898 0036                u240_20 0024                u240_21 0023  
              u241_20 0036                u241_21 0035                u242_20 004A                u242_21 0049  
              u243_20 005E                u243_21 005D                u244_25 0074                u245_20 008B  
              u245_21 008A                u238_20 0019                u238_21 0018                u239_20 001E  
              u239_21 001D                _TMR1IE 0460                _TMR1IF 0060                _TMR1ON 0080  
              _TRISC2 043A                _TRISC4 043C                _TRISC7 043F             ??___aldiv 0028  
           ??___almod 0028                _enable 0361                delay@i 0023                delay@t 0020  
              _show_a 0254                _upflag 03AB          __pdataCOMMON 0079                saved_w 007E  
    __end_of_tostring 0254        __pcstackCOMMON 0070          __pidataBANK0 037C         __end_of_delay 0361  
             ??_delay 0022            __pbssBANK0 0050            __pmaintext 0309            __pintentry 0004  
             ?_enable 0025               _CCP1CON 0017               ?_show_a 0036               ___aldiv 00C3  
             ___almod 016B       __size_of_enable 001B             ?_tostring 002F       __size_of_show_a 004A  
    ___aldiv@dividend 0024               enable@t 0025               _tsmflag 03AA  end_of_initialization 0305  
             init_ram 0394               show_a@i 003A               show_a@x 0036      ___aldiv@quotient 002B  
          ??_tostring 0033         __pidataCOMMON 03A3        __end_of_enable 037C        __end_of_show_a 029E  
 start_initialization 02E5              ??_enable 0027           __pdataBANK0 003C              ??_show_a 003A  
         __pbssCOMMON 0076         __pcstackBANK0 0020              ?___aldiv 0020              ?___almod 0020  
           __ptext380 016B             __ptext381 0344             __ptext382 0015             __ptext374 0327  
           __ptext383 0000             __ptext375 0254             __ptext376 029E             __ptext377 01FD  
           __ptext378 0361             __ptext379 00C3      ___almod@dividend 0024     __size_of_tostring 0057  
      __size_of_delay 001D       ___aldiv@divisor 0020     interrupt_function 0004       ___aldiv@counter 0029  
           init_fetch 0390      __size_of___aldiv 00A8      __size_of___almod 0092       ___almod@divisor 0020  
     ___almod@counter 0029         __size_of_ccp1 00AE         __size_of_main 001E         __size_of_init 0047  
       __size_of_show 001D              _showdata 0054              _showflag 03A9              _tostring 01FD  
            intlevel1 0000             tostring@i 0034             tostring@x 002F          ___aldiv@sign 002A  
        ___almod@sign 002A  
